Component: ARM Compiler 5.06 update 6 (build 750) Tool: armlink [4d35ed]

==============================================================================

Section Cross References

    main.o(i.hal_low_power_io_init) refers to gpio.o(i.hal_gpio_pull_set) for hal_gpio_pull_set
    main.o(i.hal_low_power_io_init) refers to pwrmgr.o(i.hal_pwrmgr_RAM_retention) for hal_pwrmgr_RAM_retention
    main.o(i.hal_low_power_io_init) refers to pwrmgr.o(i.hal_pwrmgr_RAM_retention_set) for hal_pwrmgr_RAM_retention_set
    main.o(i.hal_low_power_io_init) refers to pwrmgr.o(i.hal_pwrmgr_LowCurrentLdo_enable) for hal_pwrmgr_LowCurrentLdo_enable
    main.o(i.hal_low_power_io_init) refers to main.o(.constdata) for .constdata
    main.o(i.hal_rfphy_init) refers to clock.o(i.hal_rc32k_clk_tracking_init) for hal_rc32k_clk_tracking_init
    main.o(i.hal_rfphy_init) refers to patch.o(i.hal_rom_boot_init) for hal_rom_boot_init
    main.o(i.hal_rfphy_init) refers to main.o(i.__NVIC_SetPriority) for __NVIC_SetPriority
    main.o(i.hal_rfphy_init) refers to patch.o(_func_xip_code_.LL_InitConnectContext) for LL_InitConnectContext
    main.o(i.hal_rfphy_init) refers to main.o(.bss) for .bss
    main.o(i.main) refers to patch.o(_section_xip_code_) for init_config
    main.o(i.main) refers to main.o(i.hal_rfphy_init) for hal_rfphy_init
    main.o(i.main) refers to main.o(i.hal_low_power_io_init) for hal_low_power_io_init
    main.o(i.main) refers to patch.o(i.clk_init) for clk_init
    main.o(i.main) refers to clock.o(i.hal_rtc_clock_config) for hal_rtc_clock_config
    main.o(i.main) refers to pwrmgr.o(i.hal_pwrmgr_init) for hal_pwrmgr_init
    main.o(i.main) refers to flash.o(i.hal_spif_cache_init) for hal_spif_cache_init
    main.o(i.main) refers to my_printf.o(i.dbg_printf_init) for dbg_printf_init
    main.o(i.main) refers to gpio.o(i.hal_gpio_init) for hal_gpio_init
    main.o(i.main) refers to adc.o(i.hal_adc_init) for hal_adc_init
    main.o(i.main) refers to my_printf.o(i.dbg_printf) for dbg_printf
    main.o(i.main) refers to adc_main.o(i.app_main) for app_main
    main.o(i.main) refers to main.o(.data) for .data
    main.o(i.main) refers to main.o(.constdata) for .constdata
    main.o(i.main) refers to main.o(.conststring) for .conststring
    osal_adc.o(i.osalInitTasks) refers to voice_demo.o(i.voice_Init) for voice_Init
    osal_adc.o(i.osalInitTasks) refers to osal_adc.o(.data) for .data
    osal_adc.o(_section_sram_code_) refers to voice_demo.o(i.voice_ProcessEvent) for voice_ProcessEvent
    voice_circ_buff.o(i.CreateCircularBuffer) refers to malloc.o(i.malloc) for malloc
    voice_circ_buff.o(i.DestroyCircularBuffer) refers to malloc.o(i.free) for free
    voice_circ_buff.o(i.FillBuffer) refers to voice_circ_buff.o(i.IsBufferVacant) for IsBufferVacant
    voice_circ_buff.o(i.FillBuffer) refers to voice_circ_buff.o(i.UpdateWritePtr) for UpdateWritePtr
    voice_circ_buff.o(i.FillZeroes) refers to voice_circ_buff.o(i.UpdateWritePtr) for UpdateWritePtr
    voice_circ_buff.o(i.GetBufferEmptySize) refers to voice_circ_buff.o(i.GetBufferSize) for GetBufferSize
    voice_circ_buff.o(i.GetBufferEmptySize) refers to my_printf.o(i.dbg_printf) for dbg_printf
    voice_circ_buff.o(i.IsBufferOverflow) refers to voice_circ_buff.o(i.GetBufferSize) for GetBufferSize
    voice_circ_buff.o(i.IsBufferSizeFilled) refers to voice_circ_buff.o(i.GetBufferSize) for GetBufferSize
    voice_circ_buff.o(i.IsBufferVacant) refers to voice_circ_buff.o(i.GetBufferSize) for GetBufferSize
    voice_circ_buff.o(i.ReadBuffer) refers to voice_circ_buff.o(i.UpdateReadPtr) for UpdateReadPtr
    voice_queue.o(i.InQueue) refers to my_printf.o(i.dbg_printf) for dbg_printf
    voice_queue.o(i.InQueue) refers to voice_queue.o(.bss) for .bss
    voice_queue.o(i.InitQueue) refers to voice_queue.o(.bss) for .bss
    voice_queue.o(i.IsQueueEmpty) refers to voice_queue.o(.bss) for .bss
    voice_queue.o(i.IsQueueFull) refers to voice_queue.o(.bss) for .bss
    voice_queue.o(i.OutQueue) refers to voice_queue.o(.bss) for .bss
    voice_demo.o(i.pin_voice_stop_event) refers to voice_demo.o(i.stop_voice_task) for stop_voice_task
    voice_demo.o(i.stop_voice_task) refers to voice.o(i.hal_voice_stop) for hal_voice_stop
    voice_demo.o(i.stop_voice_task) refers to voice.o(i.hal_voice_deinit) for hal_voice_deinit
    voice_demo.o(i.stop_voice_task) refers to voice_circ_buff.o(i.InitCircularBuffer) for InitCircularBuffer
    voice_demo.o(i.stop_voice_task) refers to voice_queue.o(i.InitQueue) for InitQueue
    voice_demo.o(i.stop_voice_task) refers to voice_demo.o(.data) for .data
    voice_demo.o(i.stop_voice_task) refers to voice_demo.o(.bss) for .bss
    voice_demo.o(i.stop_voice_task) refers to voice_queue.o(.data) for VoiceSend_SubIndex
    voice_demo.o(i.voiceCaptureInit) refers to gpio.o(i.hal_gpio_pin_init) for hal_gpio_pin_init
    voice_demo.o(i.voiceCaptureInit) refers to gpio.o(i.hal_gpio_pull_set) for hal_gpio_pull_set
    voice_demo.o(i.voiceCaptureInit) refers to voice.o(i.hal_voice_config) for hal_voice_config
    voice_demo.o(i.voiceCaptureInit) refers to my_printf.o(i.dbg_printf) for dbg_printf
    voice_demo.o(i.voiceCaptureInit) refers to voice_demo.o(i.voice_evt_handler_adpcm) for voice_evt_handler_adpcm
    voice_demo.o(i.voiceCaptureStart) refers to voice_queue.o(i.InitQueue) for InitQueue
    voice_demo.o(i.voiceCaptureStart) refers to adc.o(i.hal_poilling_adc_stop) for hal_poilling_adc_stop
    voice_demo.o(i.voiceCaptureStart) refers to voice.o(i.hal_voice_init) for hal_voice_init
    voice_demo.o(i.voiceCaptureStart) refers to voice_demo.o(i.voiceCaptureInit) for voiceCaptureInit
    voice_demo.o(i.voiceCaptureStart) refers to voice_circ_buff.o(i.InitCircularBuffer) for InitCircularBuffer
    voice_demo.o(i.voiceCaptureStart) refers to voice.o(i.hal_voice_start) for hal_voice_start
    voice_demo.o(i.voiceCaptureStart) refers to voice_queue.o(.data) for VoiceSend_SubIndex
    voice_demo.o(i.voiceCaptureStart) refers to voice_demo.o(.bss) for .bss
    voice_demo.o(i.voiceCaptureStart) refers to voice_demo.o(.data) for .data
    voice_demo.o(i.voice_Init) refers to gpio.o(i.hal_gpio_pull_set) for hal_gpio_pull_set
    voice_demo.o(i.voice_Init) refers to gpio.o(i.hal_gpioin_register) for hal_gpioin_register
    voice_demo.o(i.voice_Init) refers to voice_demo.o(i.voiceCaptureStart) for voiceCaptureStart
    voice_demo.o(i.voice_Init) refers to voice_demo.o(.data) for .data
    voice_demo.o(i.voice_Init) refers to voice_demo.o(i.pin_voice_stop_event) for pin_voice_stop_event
    voice_demo.o(i.voice_ProcessEvent) refers to voice_demo.o(i.voiceCaptureStart) for voiceCaptureStart
    voice_demo.o(i.voice_ProcessEvent) refers to voice_demo.o(i.voice_data_encode_inqueue) for voice_data_encode_inqueue
    voice_demo.o(i.voice_ProcessEvent) refers to voice_demo.o(i.stop_voice_task) for stop_voice_task
    voice_demo.o(i.voice_ProcessEvent) refers to voice_demo.o(.data) for .data
    voice_demo.o(i.voice_data_encode_inqueue) refers to my_printf.o(i.dbg_printf) for dbg_printf
    voice_demo.o(i.voice_data_encode_inqueue) refers to voice_demo.o(.bss) for .bss
    voice_demo.o(i.voice_evt_handler_adpcm) refers to voice_circ_buff.o(i.FillBuffer) for FillBuffer
    voice_demo.o(i.voice_evt_handler_adpcm) refers to voice_demo.o(i.voice_requeset_data) for voice_requeset_data
    voice_demo.o(i.voice_evt_handler_adpcm) refers to voice_demo.o(.data) for .data
    voice_demo.o(i.voice_evt_handler_adpcm) refers to voice_demo.o(.bss) for .bss
    voice_demo.o(i.voice_requeset_data) refers to voice_circ_buff.o(i.IsBufferSizeFilled) for IsBufferSizeFilled
    voice_demo.o(i.voice_requeset_data) refers to voice_circ_buff.o(i.ReadBuffer) for ReadBuffer
    voice_demo.o(i.voice_requeset_data) refers to voice_demo.o(.data) for .data
    clock.o(i.hal_rc32k_clk_tracking_init) refers to clock.o(i.aon_register_init) for aon_register_init
    clock.o(i.hal_rtc_clock_config) refers to gpio.o(i.hal_gpio_pull_set) for hal_gpio_pull_set
    gpio.o(i.hal_GPIO_IRQHandler) refers to gpio.o(i.hal_gpioin_event) for hal_gpioin_event
    gpio.o(i.hal_gpio_cfg_analog_io) refers to gpio.o(i.hal_gpio_pull_set) for hal_gpio_pull_set
    gpio.o(i.hal_gpio_fmux_set) refers to gpio.o(i.hal_gpioin_disable) for hal_gpioin_disable
    gpio.o(i.hal_gpio_fmux_set) refers to gpio.o(i.hal_gpio_fmux) for hal_gpio_fmux
    gpio.o(i.hal_gpio_init) refers to gpio.o(.bss) for .bss
    gpio.o(i.hal_gpio_pin_init) refers to gpio.o(i.hal_gpio_fmux) for hal_gpio_fmux
    gpio.o(i.hal_gpio_pin_init) refers to gpio.o(i.hal_gpio_pin2pin3_control) for hal_gpio_pin2pin3_control
    gpio.o(i.hal_gpio_pin_init) refers to gpio.o(i.hal_gpio_cfg_analog_io) for hal_gpio_cfg_analog_io
    gpio.o(i.hal_gpio_pin_init) refers to gpio.o(.bss) for .bss
    gpio.o(i.hal_gpio_pull_set) refers to gpio.o(.constdata) for .constdata
    gpio.o(i.hal_gpio_wakeup_control) refers to gpio.o(.constdata) for .constdata
    gpio.o(i.hal_gpio_wakeup_set) refers to gpio.o(i.hal_gpio_wakeup_control) for hal_gpio_wakeup_control
    gpio.o(i.hal_gpio_wakeup_set) refers to gpio.o(.constdata) for .constdata
    gpio.o(i.hal_gpio_wakeup_set) refers to gpio.o(.bss) for .bss
    gpio.o(i.hal_gpio_write) refers to gpio.o(i.hal_gpio_pin_init) for hal_gpio_pin_init
    gpio.o(i.hal_gpioin_disable) refers to gpio.o(i.hal_gpio_pin_init) for hal_gpio_pin_init
    gpio.o(i.hal_gpioin_disable) refers to gpio.o(.bss) for .bss
    gpio.o(i.hal_gpioin_enable) refers to gpio.o(i.hal_gpio_pin_init) for hal_gpio_pin_init
    gpio.o(i.hal_gpioin_enable) refers to gpio.o(i.hal_gpio_read) for hal_gpio_read
    gpio.o(i.hal_gpioin_enable) refers to gpio.o(i.hal_gpio_interrupt_enable) for hal_gpio_interrupt_enable
    gpio.o(i.hal_gpioin_enable) refers to gpio.o(.bss) for .bss
    gpio.o(i.hal_gpioin_event) refers to gpio.o(i.hal_gpio_interrupt_enable) for hal_gpio_interrupt_enable
    gpio.o(i.hal_gpioin_event) refers to gpio.o(.bss) for .bss
    gpio.o(i.hal_gpioin_register) refers to gpio.o(i.hal_gpioin_disable) for hal_gpioin_disable
    gpio.o(i.hal_gpioin_register) refers to gpio.o(i.hal_gpioin_enable) for hal_gpioin_enable
    gpio.o(i.hal_gpioin_register) refers to gpio.o(.bss) for .bss
    gpio.o(i.hal_gpioin_register) refers to gpio.o(i.hal_GPIO_IRQHandler) for hal_GPIO_IRQHandler
    gpio.o(i.hal_gpioin_unregister) refers to gpio.o(i.hal_gpioin_disable) for hal_gpioin_disable
    gpio.o(i.hal_gpioin_unregister) refers to gpio.o(.bss) for .bss
    gpio.o(i.hal_gpioretention_register) refers to gpio.o(.bss) for .bss
    gpio.o(i.hal_gpioretention_unregister) refers to gpio.o(.bss) for .bss
    my_printf.o(i._uart_putc) refers to uart.o(i.hal_uart_send_buff) for hal_uart_send_buff
    my_printf.o(i.dbg_printf) refers to my_printf.o(i.log_vsprintf) for log_vsprintf
    my_printf.o(i.dbg_printf) refers to my_printf.o(i._uart_putc) for _uart_putc
    my_printf.o(i.dbg_printf_init) refers to uart.o(i.hal_uart_init) for hal_uart_init
    my_printf.o(i.dbg_printf_init) refers to my_printf.o(.constdata) for .constdata
    my_printf.o(i.log_vsprintf) refers to my_printf.o(i.skip_atoi) for skip_atoi
    my_printf.o(i.log_vsprintf) refers to my_printf.o(i.number) for number
    my_printf.o(i.my_dump_byte) refers to my_printf.o(i.dbg_printf) for dbg_printf
    my_printf.o(i.number) refers to my_printf.o(.data) for .data
    my_printf.o(.data) refers to my_printf.o(.conststring) for .conststring
    uart.o(_section_sram_code_) refers to pwrmgr.o(i.hal_pwrmgr_unlock) for hal_pwrmgr_unlock
    uart.o(_section_sram_code_) refers to uart.o(.bss) for .bss
    uart.o(_section_sram_code_) refers to uart.o(.constdata) for .constdata
    uart.o(i.hal_UART0_IRQHandler) refers to uart.o(_section_sram_code_) for irq_rx_handler
    uart.o(i.hal_UART1_IRQHandler) refers to uart.o(_section_sram_code_) for irq_rx_handler
    uart.o(i.hal_uart_deinit) refers to uart.o(i.uart_hw_deinit) for uart_hw_deinit
    uart.o(i.hal_uart_deinit) refers to pwrmgr.o(i.hal_pwrmgr_unregister) for hal_pwrmgr_unregister
    uart.o(i.hal_uart_deinit) refers to uart.o(.bss) for .bss
    uart.o(i.hal_uart_get_parity_plan) refers to uart.o(.data) for .data
    uart.o(i.hal_uart_get_tx_ready) refers to uart.o(.bss) for .bss
    uart.o(i.hal_uart_init) refers to uart.o(i.uart_hw_init) for uart_hw_init
    uart.o(i.hal_uart_init) refers to pwrmgr.o(i.hal_pwrmgr_register) for hal_pwrmgr_register
    uart.o(i.hal_uart_init) refers to uart.o(.bss) for .bss
    uart.o(i.hal_uart_init) refers to uart.o(i.uart_wakeup_process_1) for uart_wakeup_process_1
    uart.o(i.hal_uart_init) refers to uart.o(i.uart_wakeup_process_0) for uart_wakeup_process_0
    uart.o(i.hal_uart_send_buff) refers to uart.o(i.txmit_buf_use_tx_buf) for txmit_buf_use_tx_buf
    uart.o(i.hal_uart_send_buff) refers to uart.o(i.txmit_buf_polling) for txmit_buf_polling
    uart.o(i.hal_uart_send_buff) refers to uart.o(.bss) for .bss
    uart.o(i.hal_uart_set_parity_plan) refers to uart.o(.data) for .data
    uart.o(i.hal_uart_set_tx_buf) refers to uart.o(.bss) for .bss
    uart.o(i.txmit_buf_use_tx_buf) refers to pwrmgr.o(i.hal_pwrmgr_lock) for hal_pwrmgr_lock
    uart.o(i.txmit_buf_use_tx_buf) refers to uart.o(.bss) for .bss
    uart.o(i.uart_hw_deinit) refers to clock.o(i.hal_clk_reset) for hal_clk_reset
    uart.o(i.uart_hw_deinit) refers to clock.o(i.hal_clk_gate_disable) for hal_clk_gate_disable
    uart.o(i.uart_hw_deinit) refers to gpio.o(i.hal_gpio_fmux) for hal_gpio_fmux
    uart.o(i.uart_hw_deinit) refers to uart.o(.bss) for .bss
    uart.o(i.uart_hw_init) refers to uart.o(i.uart_hw_deinit) for uart_hw_deinit
    uart.o(i.uart_hw_init) refers to clock.o(i.hal_clk_gate_enable) for hal_clk_gate_enable
    uart.o(i.uart_hw_init) refers to clock.o(i.hal_clk_reset) for hal_clk_reset
    uart.o(i.uart_hw_init) refers to gpio.o(i.hal_gpio_pull_set) for hal_gpio_pull_set
    uart.o(i.uart_hw_init) refers to gpio.o(i.hal_gpio_fmux_set) for hal_gpio_fmux_set
    uart.o(i.uart_hw_init) refers to gpio.o(i.hal_gpio_fmux) for hal_gpio_fmux
    uart.o(i.uart_hw_init) refers to uart.o(.bss) for .bss
    uart.o(i.uart_hw_init) refers to uart.o(.data) for .data
    uart.o(i.uart_hw_init) refers to uart.o(i.hal_UART1_IRQHandler) for hal_UART1_IRQHandler
    uart.o(i.uart_hw_init) refers to uart.o(i.hal_UART0_IRQHandler) for hal_UART0_IRQHandler
    uart.o(i.uart_wakeup_process_0) refers to uart.o(i.uart_hw_init) for uart_hw_init
    uart.o(i.uart_wakeup_process_1) refers to uart.o(i.uart_hw_init) for uart_hw_init
    pwrmgr.o(_section_sram_code_) refers to pwrmgr.o(i.hal_pwrmgr_RAM_retention_clr) for hal_pwrmgr_RAM_retention_clr
    pwrmgr.o(_section_standby_code_) refers to gpio.o(i.hal_gpio_pin2pin3_control) for hal_gpio_pin2pin3_control
    pwrmgr.o(_section_standby_code_) refers to pwrmgr.o(.data) for .data
    pwrmgr.o(_section_standby_code_) refers to pwrmgr.o(.bss) for .bss
    pwrmgr.o(_section_xip_code_) refers to pwrmgr.o(.data) for .data
    pwrmgr.o(_section_xip_code_) refers to pwrmgr.o(.bss) for .bss
    pwrmgr.o(i.clk_change_mod_restore) refers to pwrmgr.o(.bss) for .bss
    pwrmgr.o(i.hal_pwrmgr_RAM_retention) refers to pwrmgr.o(.data) for .data
    pwrmgr.o(i.hal_pwrmgr_RAM_retention_set) refers to pwrmgr.o(.data) for .data
    pwrmgr.o(i.hal_pwrmgr_clk_gate_config) refers to pwrmgr.o(.data) for .data
    pwrmgr.o(i.hal_pwrmgr_init) refers to pwrmgr.o(.bss) for .bss
    pwrmgr.o(i.hal_pwrmgr_init) refers to pwrmgr.o(.data) for .data
    pwrmgr.o(i.hal_pwrmgr_is_lock) refers to pwrmgr.o(.data) for .data
    pwrmgr.o(i.hal_pwrmgr_is_lock) refers to pwrmgr.o(.bss) for .bss
    pwrmgr.o(i.hal_pwrmgr_lock) refers to pwrmgr.o(.data) for .data
    pwrmgr.o(i.hal_pwrmgr_lock) refers to pwrmgr.o(.bss) for .bss
    pwrmgr.o(i.hal_pwrmgr_register) refers to pwrmgr.o(.bss) for .bss
    pwrmgr.o(i.hal_pwrmgr_register) refers to pwrmgr.o(.data) for .data
    pwrmgr.o(i.hal_pwrmgr_unlock) refers to pwrmgr.o(.data) for .data
    pwrmgr.o(i.hal_pwrmgr_unlock) refers to pwrmgr.o(.bss) for .bss
    pwrmgr.o(i.hal_pwrmgr_unregister) refers to pwrmgr.o(.bss) for .bss
    pwrmgr.o(i.hal_pwrmgr_unregister) refers to pwrmgr.o(.data) for .data
    adc.o(i.adc_compare_cb) refers to my_printf.o(i.dbg_printf) for dbg_printf
    adc.o(i.adc_compare_cb) refers to adc.o(.conststring) for .conststring
    adc.o(i.adc_compare_cb) refers to adc.o(.data) for .data
    adc.o(i.adc_get_high_threshold_flag) refers to adc.o(.data) for .data
    adc.o(i.adc_set_high_threshold_flag) refers to adc.o(.data) for .data
    adc.o(i.adc_wakeup_hdl) refers to adc.o(i.__NVIC_SetPriority) for __NVIC_SetPriority
    adc.o(i.clear_adcc_cfg) refers to adc.o(.bss) for .bss
    adc.o(i.disable_analog_pin) refers to gpio.o(i.hal_gpio_cfg_analog_io) for hal_gpio_cfg_analog_io
    adc.o(i.disable_analog_pin) refers to gpio.o(i.hal_gpio_pin_init) for hal_gpio_pin_init
    adc.o(i.disable_analog_pin) refers to gpio.o(i.hal_gpio_pull_set) for hal_gpio_pull_set
    adc.o(i.disable_analog_pin) refers to adc.o(.data) for .data
    adc.o(i.hal_ADC_IRQHandler) refers to adc.o(i.hal_poilling_adc_stop) for hal_poilling_adc_stop
    adc.o(i.hal_ADC_IRQHandler) refers to adc.o(.bss) for .bss
    adc.o(i.hal_ADC_compare_IRQHandler) refers to adc.o(i.adc_compare_cb) for adc_compare_cb
    adc.o(i.hal_ADC_compare_IRQHandler) refers to adc.o(i.hal_adc_stop) for hal_adc_stop
    adc.o(i.hal_ADC_compare_IRQHandler) refers to adc.o(.bss) for .bss
    adc.o(i.hal_ADC_compare_IRQHandler) refers to adc.o(.data) for .data
    adc.o(i.hal_adc_clock_config) refers to adc.o(.data) for .data
    adc.o(i.hal_adc_compare_enable) refers to my_printf.o(i.dbg_printf) for dbg_printf
    adc.o(i.hal_adc_compare_enable) refers to adc.o(.data) for .data
    adc.o(i.hal_adc_compare_start) refers to pwrmgr.o(i.hal_pwrmgr_lock) for hal_pwrmgr_lock
    adc.o(i.hal_adc_compare_start) refers to adc.o(i.__NVIC_SetPriority) for __NVIC_SetPriority
    adc.o(i.hal_adc_compare_start) refers to adc.o(i.__NVIC_EnableIRQ) for __NVIC_EnableIRQ
    adc.o(i.hal_adc_compare_start) refers to adc.o(.data) for .data
    adc.o(i.hal_adc_compare_start) refers to adc.o(.bss) for .bss
    adc.o(i.hal_adc_compare_start) refers to adc.o(i.hal_ADC_compare_IRQHandler) for hal_ADC_compare_IRQHandler
    adc.o(i.hal_adc_config_channel) refers to clock.o(i.hal_clk_gate_enable) for hal_clk_gate_enable
    adc.o(i.hal_adc_config_channel) refers to adc.o(i.set_sampling_resolution) for set_sampling_resolution
    adc.o(i.hal_adc_config_channel) refers to gpio.o(i.hal_gpio_pull_set) for hal_gpio_pull_set
    adc.o(i.hal_adc_config_channel) refers to gpio.o(i.hal_gpio_ds_control) for hal_gpio_ds_control
    adc.o(i.hal_adc_config_channel) refers to gpio.o(i.hal_gpio_cfg_analog_io) for hal_gpio_cfg_analog_io
    adc.o(i.hal_adc_config_channel) refers to adc.o(.data) for .data
    adc.o(i.hal_adc_config_channel) refers to adc.o(.bss) for .bss
    adc.o(i.hal_adc_deinit) refers to pwrmgr.o(i.hal_pwrmgr_unregister) for hal_pwrmgr_unregister
    adc.o(i.hal_adc_deinit) refers to adc.o(.bss) for .bss
    adc.o(i.hal_adc_init) refers to pwrmgr.o(i.hal_pwrmgr_register) for hal_pwrmgr_register
    adc.o(i.hal_adc_init) refers to adc.o(i.clear_adcc_cfg) for clear_adcc_cfg
    adc.o(i.hal_adc_init) refers to adc.o(.data) for .data
    adc.o(i.hal_adc_init) refers to adc.o(i.adc_wakeup_hdl) for adc_wakeup_hdl
    adc.o(i.hal_adc_load_calibration_value) refers to my_printf.o(i.dbg_printf) for dbg_printf
    adc.o(i.hal_adc_load_calibration_value) refers to adc.o(.data) for .data
    adc.o(i.hal_adc_start) refers to pwrmgr.o(i.hal_pwrmgr_lock) for hal_pwrmgr_lock
    adc.o(i.hal_adc_start) refers to adc.o(i.__NVIC_DisableIRQ) for __NVIC_DisableIRQ
    adc.o(i.hal_adc_start) refers to adc.o(i.__NVIC_SetPriority) for __NVIC_SetPriority
    adc.o(i.hal_adc_start) refers to adc.o(i.__NVIC_EnableIRQ) for __NVIC_EnableIRQ
    adc.o(i.hal_adc_start) refers to adc.o(.bss) for .bss
    adc.o(i.hal_adc_start) refers to adc.o(.data) for .data
    adc.o(i.hal_adc_start) refers to adc.o(i.hal_ADC_compare_IRQHandler) for hal_ADC_compare_IRQHandler
    adc.o(i.hal_adc_start) refers to adc.o(i.hal_ADC_IRQHandler) for hal_ADC_IRQHandler
    adc.o(i.hal_adc_stop) refers to adc.o(i.__NVIC_DisableIRQ) for __NVIC_DisableIRQ
    adc.o(i.hal_adc_stop) refers to adc.o(i.disable_analog_pin) for disable_analog_pin
    adc.o(i.hal_adc_stop) refers to clock.o(i.hal_clk_reset) for hal_clk_reset
    adc.o(i.hal_adc_stop) refers to clock.o(i.hal_clk_gate_disable) for hal_clk_gate_disable
    adc.o(i.hal_adc_stop) refers to adc.o(i.clear_adcc_cfg) for clear_adcc_cfg
    adc.o(i.hal_adc_stop) refers to pwrmgr.o(i.hal_pwrmgr_unlock) for hal_pwrmgr_unlock
    adc.o(i.hal_adc_stop) refers to adc.o(.bss) for .bss
    adc.o(i.hal_adc_stop) refers to adc.o(.data) for .data
    adc.o(i.hal_adc_value_cal) refers to adc.o(i.hal_adc_load_calibration_value) for hal_adc_load_calibration_value
    adc.o(i.hal_adc_value_cal) refers to ffltui.o(.text) for __aeabi_ui2f
    adc.o(i.hal_adc_value_cal) refers to fflti.o(.text) for __aeabi_i2f
    adc.o(i.hal_adc_value_cal) refers to fdiv.o(.text) for __aeabi_fdiv
    adc.o(i.hal_adc_value_cal) refers to dflti.o(.text) for __aeabi_i2d
    adc.o(i.hal_adc_value_cal) refers to dscalb.o(.text) for __ARM_scalbn
    adc.o(i.hal_adc_value_cal) refers to d2f.o(.text) for __aeabi_d2f
    adc.o(i.hal_adc_value_cal) refers to fadd.o(.text) for __aeabi_fsub
    adc.o(i.hal_adc_value_cal) refers to fscalb.o(.text) for __ARM_scalbnf
    adc.o(i.hal_adc_value_cal) refers to fmul.o(.text) for __aeabi_fmul
    adc.o(i.hal_adc_value_cal) refers to f2d.o(.text) for __aeabi_f2d
    adc.o(i.hal_adc_value_cal) refers to dmul.o(.text) for __aeabi_dmul
    adc.o(i.hal_adc_value_cal) refers to ddiv.o(.text) for __aeabi_ddiv
    adc.o(i.hal_adc_value_cal) refers to adc.o(.data) for .data
    adc.o(i.hal_adc_value_cal) refers to adc.o(.constdata) for .constdata
    adc.o(i.hal_adc_value_read) refers to adc.o(.bss) for .bss
    adc.o(i.hal_poilling_adc_stop) refers to adc.o(i.__NVIC_DisableIRQ) for __NVIC_DisableIRQ
    adc.o(i.hal_poilling_adc_stop) refers to adc.o(i.disable_analog_pin) for disable_analog_pin
    adc.o(i.hal_poilling_adc_stop) refers to clock.o(i.hal_clk_reset) for hal_clk_reset
    adc.o(i.hal_poilling_adc_stop) refers to clock.o(i.hal_clk_gate_disable) for hal_clk_gate_disable
    adc.o(i.hal_poilling_adc_stop) refers to adc.o(i.clear_adcc_cfg) for clear_adcc_cfg
    adc.o(i.hal_poilling_adc_stop) refers to pwrmgr.o(i.hal_pwrmgr_unlock) for hal_pwrmgr_unlock
    adc.o(i.hal_poilling_adc_stop) refers to adc.o(.data) for .data
    adc.o(i.hal_poilling_adc_stop) refers to adc.o(.bss) for .bss
    flash.o(_section_sram_code_) refers to patch.o(i.ll_patch_restore) for ll_patch_restore
    flash.o(i.LOG_CHIP_MADDR) refers to my_printf.o(i.dbg_printf) for dbg_printf
    flash.o(i.LOG_CHIP_MADDR) refers to flash.o(.data) for .data
    flash.o(i.check_chip_mAddr) refers to flash.o(i.read_chip_mAddr) for read_chip_mAddr
    flash.o(i.check_chip_mAddr) refers to flash.o(.data) for .data
    flash.o(i.flash_write_word) refers to flash.o(i.hal_flash_write_by_dma) for hal_flash_write_by_dma
    flash.o(i.hal_flash_erase_all) refers to flash.o(_section_sram_code_) for spif_lock
    flash.o(i.hal_flash_erase_all) refers to flash.o(i.spif_wait_nobusy) for spif_wait_nobusy
    flash.o(i.hal_flash_erase_all) refers to flash.o(i.hal_cache_tag_flush) for hal_cache_tag_flush
    flash.o(i.hal_flash_erase_block64) refers to flash.o(_section_sram_code_) for spif_lock
    flash.o(i.hal_flash_erase_block64) refers to flash.o(i.spif_wait_nobusy) for spif_wait_nobusy
    flash.o(i.hal_flash_erase_block64) refers to flash.o(i.hal_cache_tag_flush) for hal_cache_tag_flush
    flash.o(i.hal_flash_erase_sector) refers to flash.o(_section_sram_code_) for spif_lock
    flash.o(i.hal_flash_erase_sector) refers to flash.o(i.spif_wait_nobusy) for spif_wait_nobusy
    flash.o(i.hal_flash_erase_sector) refers to flash.o(i.hal_cache_tag_flush) for hal_cache_tag_flush
    flash.o(i.hal_flash_read) refers to flash.o(_section_sram_code_) for spif_lock
    flash.o(i.hal_flash_write) refers to flash.o(_section_sram_code_) for spif_lock
    flash.o(i.hal_flash_write) refers to flash.o(i.spif_wait_nobusy) for spif_wait_nobusy
    flash.o(i.hal_flash_write_by_dma) refers to flash.o(_section_sram_code_) for spif_lock
    flash.o(i.hal_flash_write_by_dma) refers to flash.o(i.spif_wait_nobusy) for spif_wait_nobusy
    flash.o(i.hal_flash_write_by_dma) refers to flash.o(.data) for .data
    flash.o(i.hal_spif_cache_init) refers to flash.o(i.hw_spif_cache_config) for hw_spif_cache_config
    flash.o(i.hal_spif_cache_init) refers to pwrmgr.o(i.hal_pwrmgr_register) for hal_pwrmgr_register
    flash.o(i.hal_spif_cache_init) refers to flash.o(.data) for .data
    flash.o(i.hw_spif_cache_config) refers to clock.o(i.hal_clk_gate_enable) for hal_clk_gate_enable
    flash.o(i.hw_spif_cache_config) refers to flash.o(i.hal_cache_tag_flush) for hal_cache_tag_flush
    flash.o(i.hw_spif_cache_config) refers to flash.o(.data) for .data
    flash.o(i.read_chip_mAddr) refers to patch.o(i.chip_id_one_bit_hot_convter) for chip_id_one_bit_hot_convter
    flash.o(i.read_chip_mAddr) refers to flash.o(.data) for .data
    flash.o(i.spif_wait_nobusy) refers to flash.o(i._spif_read_status_reg_x) for _spif_read_status_reg_x
    flash.o(i.spif_wait_nobusy) refers to my_printf.o(i.dbg_printf) for dbg_printf
    voice.o(i.hal_ADC_VOICE_IRQHandler) refers to voice.o(.bss) for .bss
    voice.o(i.hal_voice_clear) refers to gpio.o(i.hal_gpioin_disable) for hal_gpioin_disable
    voice.o(i.hal_voice_clear) refers to pwrmgr.o(i.hal_pwrmgr_unlock) for hal_pwrmgr_unlock
    voice.o(i.hal_voice_clear) refers to voice.o(.bss) for .bss
    voice.o(i.hal_voice_config) refers to clock.o(i.hal_clk_gate_enable) for hal_clk_gate_enable
    voice.o(i.hal_voice_config) refers to voice.o(i.hal_voice_dmic_mode) for hal_voice_dmic_mode
    voice.o(i.hal_voice_config) refers to voice.o(i.hal_voice_dmic_open) for hal_voice_dmic_open
    voice.o(i.hal_voice_config) refers to voice.o(i.hal_voice_amic_mode) for hal_voice_amic_mode
    voice.o(i.hal_voice_config) refers to voice.o(i.hal_voice_amic_gain) for hal_voice_amic_gain
    voice.o(i.hal_voice_config) refers to gpio.o(i.hal_gpio_pull_set) for hal_gpio_pull_set
    voice.o(i.hal_voice_config) refers to gpio.o(i.hal_gpio_cfg_analog_io) for hal_gpio_cfg_analog_io
    voice.o(i.hal_voice_config) refers to voice.o(i.hal_voice_gain) for hal_voice_gain
    voice.o(i.hal_voice_config) refers to voice.o(i.hal_voice_encode) for hal_voice_encode
    voice.o(i.hal_voice_config) refers to voice.o(i.hal_voice_rate) for hal_voice_rate
    voice.o(i.hal_voice_config) refers to voice.o(i.hal_voice_amute_off) for hal_voice_amute_off
    voice.o(i.hal_voice_config) refers to voice.o(i.hal_voice_amute_on) for hal_voice_amute_on
    voice.o(i.hal_voice_config) refers to voice.o(i.set_voice_amute_cfg) for set_voice_amute_cfg
    voice.o(i.hal_voice_config) refers to voice.o(.bss) for .bss
    voice.o(i.hal_voice_deinit) refers to pwrmgr.o(i.hal_pwrmgr_unregister) for hal_pwrmgr_unregister
    voice.o(i.hal_voice_disable) refers to clock.o(i.hal_clk_reset) for hal_clk_reset
    voice.o(i.hal_voice_disable) refers to clock.o(i.hal_clk_gate_disable) for hal_clk_gate_disable
    voice.o(i.hal_voice_dmic_open) refers to gpio.o(i.hal_gpio_fmux_set) for hal_gpio_fmux_set
    voice.o(i.hal_voice_enable) refers to clock.o(i.hal_clk_gate_enable) for hal_clk_gate_enable
    voice.o(i.hal_voice_init) refers to pwrmgr.o(i.hal_pwrmgr_register) for hal_pwrmgr_register
    voice.o(i.hal_voice_init) refers to voice.o(i.voice_wakeup_hdl) for voice_wakeup_hdl
    voice.o(i.hal_voice_init) refers to voice.o(.bss) for .bss
    voice.o(i.hal_voice_start) refers to clock.o(i.hal_clk_gate_enable) for hal_clk_gate_enable
    voice.o(i.hal_voice_start) refers to pwrmgr.o(i.hal_pwrmgr_lock) for hal_pwrmgr_lock
    voice.o(i.hal_voice_start) refers to voice.o(i.__NVIC_SetPriority) for __NVIC_SetPriority
    voice.o(i.hal_voice_start) refers to voice.o(i.hal_voice_enable) for hal_voice_enable
    voice.o(i.hal_voice_start) refers to voice.o(.bss) for .bss
    voice.o(i.hal_voice_start) refers to voice.o(i.hal_ADC_VOICE_IRQHandler) for hal_ADC_VOICE_IRQHandler
    voice.o(i.hal_voice_stop) refers to voice.o(i.hal_voice_disable) for hal_voice_disable
    voice.o(i.hal_voice_stop) refers to pwrmgr.o(i.hal_pwrmgr_unlock) for hal_pwrmgr_unlock
    voice.o(i.hal_voice_stop) refers to voice.o(.bss) for .bss
    voice.o(i.voice_wakeup_hdl) refers to voice.o(i.__NVIC_SetPriority) for __NVIC_SetPriority
    jump_table.o(.emb_text) refers to jump_table.o(i._hard_fault) for _hard_fault
    jump_table.o(i._hard_fault) refers to jump_table.o(.data) for .data
    jump_table.o(jump_table_mem_area) refers to osal_adc.o(i.osalInitTasks) for osalInitTasks
    jump_table.o(jump_table_mem_area) refers to osal_adc.o(_section_sram_code_) for tasksArr
    jump_table.o(jump_table_mem_area) refers to osal_adc.o(_section_sram_code_) for tasksCnt
    jump_table.o(jump_table_mem_area) refers to osal_adc.o(.data) for tasksEvents
    jump_table.o(jump_table_mem_area) refers (Weak) to pwrmgr.o(i.hal_pwrmgr_sleep_process) for hal_pwrmgr_sleep_process
    jump_table.o(jump_table_mem_area) refers (Weak) to pwrmgr.o(i.hal_pwrmgr_wakeup_process) for hal_pwrmgr_wakeup_process
    jump_table.o(jump_table_mem_area) refers to rf_phy_driver.o(i.rf_phy_ini) for rf_phy_ini
    jump_table.o(jump_table_mem_area) refers to jump_table.o(.emb_text) for hard_fault
    jump_table.o(jump_table_mem_area) refers (Weak) to uart.o(i.hal_UART0_IRQHandler) for hal_UART0_IRQHandler
    startup_armcm0.o(RESET) refers to startup_armcm0.o(STACK) for __initial_sp
    startup_armcm0.o(RESET) refers to startup_armcm0.o(.text) for Reset_Handler
    startup_armcm0.o(.text) refers to system_armcm0.o(i.SystemInit) for SystemInit
    startup_armcm0.o(.text) refers to entry.o(.ARM.Collect$$$$00000000) for __main
    system_armcm0.o(i.SystemCoreClockUpdate) refers to system_armcm0.o(.data) for .data
    system_armcm0.o(i.SystemInit) refers to system_armcm0.o(.data) for .data
    patch.o(_func_xip_code_.HCI_LE_ConnUpdateCmd) refers to patch.o(_func_xip_code_.LL_ConnUpdate1) for LL_ConnUpdate1
    patch.o(_func_xip_code_.HCI_LE_LtkReqNegReplyCmd) refers to patch.o(_func_xip_code_.LL_EncLtkNegReply) for LL_EncLtkNegReply
    patch.o(_func_xip_code_.HCI_LE_LtkReqReplyCmd) refers to patch.o(_func_xip_code_.LL_EncLtkReply) for LL_EncLtkReply
    patch.o(_func_xip_code_.HCI_LE_SetRandomAddressCmd) refers to patch.o(_func_xip_code_.LL_SetRandomAddress1) for LL_SetRandomAddress1
    patch.o(_func_xip_code_.LL_CreateConn1) refers to patch.o(.data) for .data
    patch.o(_func_xip_code_.LL_InitConnectContext) refers to patch.o(i.ll_osal_mem_alloc) for ll_osal_mem_alloc
    patch.o(_func_xip_code_.LL_InitConnectContext) refers to patch.o(.bss) for .bss
    patch.o(_func_xip_code_.LL_PLUS_GetCurrentRSSI) refers to rf_phy_driver.o(i.rf_phy_get_pktFoot) for rf_phy_get_pktFoot
    patch.o(_func_xip_code_.LL_SetAdvControl1) refers to patch.o(.data) for .data
    patch.o(_func_xip_code_.LL_SetAdvControl_advscan) refers to patch.o(.data) for .data
    patch.o(_func_xip_code_.LL_SetScanControl1) refers to patch.o(.data) for .data
    patch.o(_func_xip_code_.LL_SetScanControl_advscan) refers to patch.o(.data) for .data
    patch.o(_func_xip_code_.TRNG_INIT) refers to patch.o(_func_xip_code_.TRNG_Output) for TRNG_Output
    patch.o(_func_xip_code_.TRNG_INIT) refers to patch.o(.data) for .data
    patch.o(_func_xip_code_.TRNG_INIT) refers to patch.o(.bss) for .bss
    patch.o(_func_xip_code_.TRNG_Rand) refers to patch.o(_func_xip_code_.TRNG_INIT) for TRNG_INIT
    patch.o(_func_xip_code_.TRNG_Rand) refers to patch.o(.bss) for .bss
    patch.o(_func_xip_code_.TRNG_Rand) refers to phy_sec_ext.o(.data) for s_company_id
    patch.o(_func_xip_code_.llConnTerminate1) refers to patch.o(.bss) for .bss
    patch.o(_func_xip_code_.llConnTerminate_advscan) refers to patch.o(_func_xip_code_.llConnTerminate1) for llConnTerminate1
    patch.o(_func_xip_code_.llConnTerminate_advscan) refers to patch.o(.data) for .data
    patch.o(_func_xip_code_.llProcessMasterControlProcedures1) refers to patch.o(i.llSetupStartEncRsp) for llSetupStartEncRsp
    patch.o(_func_xip_code_.llProcessMasterControlProcedures1) refers to patch.o(.data) for .data
    patch.o(_func_xip_code_.llProcessSlaveControlProcedures1) refers to patch.o(i.llSetupStartEncRsp) for llSetupStartEncRsp
    patch.o(_func_xip_code_.llProcessSlaveControlProcedures1) refers to patch.o(.data) for .data
    patch.o(_func_xip_code_.llSetupSecAdvEvt1) refers to rf_phy_driver.o(i.rf_phy_change_cfg0) for rf_phy_change_cfg0
    patch.o(_func_xip_code_.ll_dbg_show) refers to patch.o(i.ll_dbg_heap_statics) for ll_dbg_heap_statics
    patch.o(_func_xip_code_.ll_dbg_show) refers to my_printf.o(i.my_dump_byte) for my_dump_byte
    patch.o(_func_xip_code_.ll_dbg_show) refers to patch.o(i.osal_memory_statics) for osal_memory_statics
    patch.o(_func_xip_code_.ll_dbg_show) refers to patch.o(i.ll_osal_memory_statics) for ll_osal_memory_statics
    patch.o(_func_xip_code_.ll_dbg_show) refers to patch.o(.bss) for .bss
    patch.o(_func_xip_code_.ll_dbg_show) refers to patch.o(.data) for .data
    patch.o(_func_xip_code_.ll_patch_advscan) refers to patch.o(_func_xip_code_.ll_patch_slave) for ll_patch_slave
    patch.o(_func_xip_code_.ll_patch_advscan) refers to patch.o(_func_xip_code_.ll_patch_secscan_activescan) for ll_patch_secscan_activescan
    patch.o(_func_xip_code_.ll_patch_advscan) refers to patch.o(i.llSecAdvAllow1) for llSecAdvAllow1
    patch.o(_func_xip_code_.ll_patch_advscan) refers to patch.o(_func_xip_code_.llSetupSecAdvEvt1) for llSetupSecAdvEvt1
    patch.o(_func_xip_code_.ll_patch_advscan) refers to patch.o(_func_xip_code_.LL_SetScanParam1) for LL_SetScanParam1
    patch.o(_func_xip_code_.ll_patch_advscan) refers to patch.o(i.ll_processBasicIRQ_SRX0) for ll_processBasicIRQ_SRX0
    patch.o(_func_xip_code_.ll_patch_advscan) refers to patch.o(i.ll_processBasicIRQ_ScanTRX0) for ll_processBasicIRQ_ScanTRX0
    patch.o(_func_xip_code_.ll_patch_advscan) refers to patch.o(i.llSetupSecScan1) for llSetupSecScan1
    patch.o(_func_xip_code_.ll_patch_advscan) refers to patch.o(i.llSetupScan1) for llSetupScan1
    patch.o(_func_xip_code_.ll_patch_advscan) refers to patch.o(i.llCalcMaxScanTime1) for llCalcMaxScanTime1
    patch.o(_func_xip_code_.ll_patch_advscan) refers to patch.o(_func_xip_code_.LL_SetAdvControl_advscan) for LL_SetAdvControl_advscan
    patch.o(_func_xip_code_.ll_patch_advscan) refers to patch.o(_func_xip_code_.LL_SetScanControl_advscan) for LL_SetScanControl_advscan
    patch.o(_func_xip_code_.ll_patch_advscan) refers to patch.o(_func_xip_code_.llConnTerminate_advscan) for llConnTerminate_advscan
    patch.o(_func_xip_code_.ll_patch_advscan) refers to patch.o(i.move_to_slave_function_advscan) for move_to_slave_function_advscan
    patch.o(_func_xip_code_.ll_patch_advscan) refers to patch.o(i.ll_processBasicIRQ_secondaryAdvTRX_advscan) for ll_processBasicIRQ_secondaryAdvTRX_advscan
    patch.o(_func_xip_code_.ll_patch_advscan) refers to patch.o(i.ll_processBasicIRQ_secondaryAdvSTX_advscan) for ll_processBasicIRQ_secondaryAdvSTX_advscan
    patch.o(_func_xip_code_.ll_patch_advscan) refers to patch.o(i.TIM5_IRQHandler1) for TIM5_IRQHandler1
    patch.o(_func_xip_code_.ll_patch_advscan) refers to patch.o(i.osal_idle_task_advscan) for osal_idle_task_advscan
    patch.o(_func_xip_code_.ll_patch_master) refers to patch.o(i.llMasterEvt_TaskEndOk1) for llMasterEvt_TaskEndOk1
    patch.o(_func_xip_code_.ll_patch_master) refers to patch.o(_func_xip_code_.LL_SetScanParam1) for LL_SetScanParam1
    patch.o(_func_xip_code_.ll_patch_master) refers to patch.o(_func_xip_code_.LL_SetScanControl1) for LL_SetScanControl1
    patch.o(_func_xip_code_.ll_patch_master) refers to patch.o(_func_xip_code_.LL_StartEncrypt1) for LL_StartEncrypt1
    patch.o(_func_xip_code_.ll_patch_master) refers to patch.o(i.LL_ENC_Decrypt1) for LL_ENC_Decrypt1
    patch.o(_func_xip_code_.ll_patch_master) refers to patch.o(_func_xip_code_.llProcessMasterControlProcedures1) for llProcessMasterControlProcedures1
    patch.o(_func_xip_code_.ll_patch_master) refers to patch.o(i.ll_processBasicIRQ_SRX0) for ll_processBasicIRQ_SRX0
    patch.o(_func_xip_code_.ll_patch_master) refers to patch.o(i.ll_processBasicIRQ_ScanTRX0) for ll_processBasicIRQ_ScanTRX0
    patch.o(_func_xip_code_.ll_patch_master) refers to patch.o(i.llSetupScan1) for llSetupScan1
    patch.o(_func_xip_code_.ll_patch_master) refers to patch.o(i.ll_scheduler_singleconn) for ll_scheduler_singleconn
    patch.o(_func_xip_code_.ll_patch_master) refers to patch.o(i.move_to_master_function2) for move_to_master_function2
    patch.o(_func_xip_code_.ll_patch_master) refers to patch.o(_func_xip_code_.LL_CreateConn1) for LL_CreateConn1
    patch.o(_func_xip_code_.ll_patch_master) refers to patch.o(i.llProcessMasterControlPacket1) for llProcessMasterControlPacket1
    patch.o(_func_xip_code_.ll_patch_master) refers to patch.o(_func_xip_code_.llConnTerminate1) for llConnTerminate1
    patch.o(_func_xip_code_.ll_patch_master) refers to patch.o(_section_xip_code_) for LL_CreateConnCancel1
    patch.o(_func_xip_code_.ll_patch_master_advance_llprocesstxdata) refers to patch.o(.data) for .data
    patch.o(_func_xip_code_.ll_patch_master_advance_llprocesstxdata) refers to patch.o(i.LL_master_conn_event1) for LL_master_conn_event1
    patch.o(_func_xip_code_.ll_patch_mesh_slave) refers to patch.o(_func_xip_code_.LL_SetAdvParam1) for LL_SetAdvParam1
    patch.o(_func_xip_code_.ll_patch_mesh_slave) refers to patch.o(_func_xip_code_.LL_SetAdvControl1) for LL_SetAdvControl1
    patch.o(_func_xip_code_.ll_patch_mesh_slave) refers to patch.o(i.llSetupAdv1) for llSetupAdv1
    patch.o(_func_xip_code_.ll_patch_mesh_slave) refers to patch.o(i.move_to_slave_function1) for move_to_slave_function1
    patch.o(_func_xip_code_.ll_patch_mesh_slave) refers to patch.o(i.llSetupNextSlaveEvent1) for llSetupNextSlaveEvent1
    patch.o(_func_xip_code_.ll_patch_mesh_slave) refers to patch.o(i.llProcessSlaveControlPacket1) for llProcessSlaveControlPacket1
    patch.o(_func_xip_code_.ll_patch_mesh_slave) refers to patch.o(_func_xip_code_.llConnTerminate1) for llConnTerminate1
    patch.o(_func_xip_code_.ll_patch_mesh_slave) refers to patch.o(_func_xip_code_.llProcessSlaveControlProcedures1) for llProcessSlaveControlProcedures1
    patch.o(_func_xip_code_.ll_patch_mesh_slave) refers to patch.o(i.ll_adptive_adj_next_time1) for ll_adptive_adj_next_time1
    patch.o(_func_xip_code_.ll_patch_mesh_slave) refers to patch.o(i.LL_slave_conn_event3) for LL_slave_conn_event3
    patch.o(_func_xip_code_.ll_patch_multi) refers to patch.o(i.ll_patch_multislave) for ll_patch_multislave
    patch.o(_func_xip_code_.ll_patch_multi) refers to patch.o(i.ll_patch_multimaster) for ll_patch_multimaster
    patch.o(_func_xip_code_.ll_patch_secscan_activescan) refers to patch.o(i.ll_processBasicIRQ_secondaryScanSRX0_activescan) for ll_processBasicIRQ_secondaryScanSRX0_activescan
    patch.o(_func_xip_code_.ll_patch_secscan_activescan) refers to patch.o(i.ll_processBasicIRQ_secScanTRX0) for ll_processBasicIRQ_secScanTRX0
    patch.o(_func_xip_code_.ll_patch_secscan_passivescan) refers to patch.o(i.ll_processBasicIRQ_secondaryScanSRX0) for ll_processBasicIRQ_secondaryScanSRX0
    patch.o(_func_xip_code_.ll_patch_slave) refers to patch.o(_func_xip_code_.LL_SetAdvParam1) for LL_SetAdvParam1
    patch.o(_func_xip_code_.ll_patch_slave) refers to patch.o(_func_xip_code_.LL_SetAdvControl1) for LL_SetAdvControl1
    patch.o(_func_xip_code_.ll_patch_slave) refers to patch.o(i.move_to_slave_function1) for move_to_slave_function1
    patch.o(_func_xip_code_.ll_patch_slave) refers to patch.o(i.ll_scheduler_singleconn) for ll_scheduler_singleconn
    patch.o(_func_xip_code_.ll_patch_slave) refers to patch.o(i.llSetupNextSlaveEvent1) for llSetupNextSlaveEvent1
    patch.o(_func_xip_code_.ll_patch_slave) refers to patch.o(i.llProcessSlaveControlPacket1) for llProcessSlaveControlPacket1
    patch.o(_func_xip_code_.ll_patch_slave) refers to patch.o(_func_xip_code_.llConnTerminate1) for llConnTerminate1
    patch.o(_func_xip_code_.ll_patch_slave) refers to patch.o(_func_xip_code_.llProcessSlaveControlProcedures1) for llProcessSlaveControlProcedures1
    patch.o(_func_xip_code_.ll_patch_slave) refers to patch.o(i.ll_adptive_adj_next_time1) for ll_adptive_adj_next_time1
    patch.o(_func_xip_code_.ll_patch_slave) refers to patch.o(i.LL_slave_conn_event3) for LL_slave_conn_event3
    patch.o(_func_xip_code_.ll_patch_slave_advance_llprocesstxdata) refers to patch.o(.data) for .data
    patch.o(_func_xip_code_.ll_patch_slave_advance_llprocesstxdata) refers to patch.o(i.LL_slave_conn_event2) for LL_slave_conn_event2
    patch.o(_section_xip_code_) refers to phy_sec_ext.o(i._rom_efuse_version_init) for _rom_efuse_version_init
    patch.o(_section_xip_code_) refers to patch.o(i.global_config_hclk_related) for global_config_hclk_related
    patch.o(_section_xip_code_) refers to patch.o(.data) for .data
    patch.o(_section_xip_code_) refers to startup_armcm0.o(STACK) for __initial_sp
    patch.o(_section_xip_code_) refers to main.o(.data) for g_clk32K_config
    patch.o(_section_xip_code_) refers to patch.o(i.ll_hw_go1) for ll_hw_go1
    patch.o(_section_xip_code_) refers to patch.o(i.LL_IRQHandler1) for LL_IRQHandler1
    patch.o(_section_xip_code_) refers to rf_phy_driver.o(i.rf_calibrate1) for rf_calibrate1
    patch.o(_section_xip_code_) refers to rf_phy_driver.o(i.rf_phy_change_cfg0) for rf_phy_change_cfg0
    patch.o(_section_xip_code_) refers to patch.o(i.LL_ENC_AES128_Encrypt1) for LL_ENC_AES128_Encrypt1
    patch.o(_section_xip_code_) refers to patch.o(i.LL_ENC_Encrypt1) for LL_ENC_Encrypt1
    patch.o(_section_xip_code_) refers to patch.o(i.LL_ENC_Decrypt1) for LL_ENC_Decrypt1
    patch.o(_section_xip_code_) refers to patch.o(i.enterSleepProcess1) for enterSleepProcess1
    patch.o(_section_xip_code_) refers to patch.o(i.config_RTC1) for config_RTC1
    patch.o(_section_xip_code_) refers to patch.o(i.wakeup_init1) for wakeup_init1
    patch.o(_section_xip_code_) refers to patch.o(i.wakeupProcess1) for wakeupProcess1
    patch.o(_section_xip_code_) refers to patch.o(i.l2capPocessFragmentTxData) for l2capPocessFragmentTxData
    patch.o(_section_xip_code_) refers to patch.o(_func_xip_code_.LL_SetDataLengh1) for LL_SetDataLengh1
    patch.o(_section_xip_code_) refers to patch.o(i.llProcessTxData1) for llProcessTxData1
    patch.o(_section_xip_code_) refers to patch.o(i.ll_generateTxBuffer1) for ll_generateTxBuffer1
    patch.o(_section_xip_code_) refers to patch.o(i.LL_set_default_conn_params1) for LL_set_default_conn_params1
    patch.o(_section_xip_code_) refers to patch.o(_func_xip_code_.LL_Disconnect1) for LL_Disconnect1
    patch.o(_section_xip_code_) refers to patch.o(i.osal_idle_task0) for osal_idle_task0
    patch.o(_section_xip_code_) refers to patch.o(i.llSlaveEvt_TaskEndOk1) for llSlaveEvt_TaskEndOk1
    patch.o(_section_xip_code_) refers to patch.o(i.ll_hw_read_tfifo_rtlp1) for ll_hw_read_tfifo_rtlp1
    patch.o(_section_xip_code_) refers to patch.o(i.llWriteTxData1) for llWriteTxData1
    patch.o(_section_xip_code_) refers to patch.o(i.LL_Reset1) for LL_Reset1
    patch.o(_section_xip_code_) refers to patch.o(i.llReleaseConnId1) for llReleaseConnId1
    patch.o(_section_xip_code_) refers to patch.o(_func_xip_code_.LL_TxData1) for LL_TxData1
    patch.o(_section_xip_code_) refers to patch.o(i.LL_ProcessEvent1) for LL_ProcessEvent1
    patch.o(_section_xip_code_) refers to patch.o(i.ll_read_rxfifo1) for ll_read_rxfifo1
    patch.o(i.LL_AdvReportCback_Patch) refers to patch.o(.data) for .data
    patch.o(i.LL_IRQHandler1) refers to patch.o(i.ll_processBasicIRQ_SRX) for ll_processBasicIRQ_SRX
    patch.o(i.LL_IRQHandler1) refers to patch.o(i.ll_processBasicIRQ_secondaryAdvSTX) for ll_processBasicIRQ_secondaryAdvSTX
    patch.o(i.LL_IRQHandler1) refers to patch.o(i.ll_processBasicIRQ_secondaryAdvTRX) for ll_processBasicIRQ_secondaryAdvTRX
    patch.o(i.LL_IRQHandler1) refers to patch.o(i.ll_processBasicIRQ_ScanTRX) for ll_processBasicIRQ_ScanTRX
    patch.o(i.LL_IRQHandler1) refers to patch.o(i.ll_processBasicIRQ_secondaryScanSRX) for ll_processBasicIRQ_secondaryScanSRX
    patch.o(i.LL_IRQHandler1) refers to patch.o(i.ll_processBasicIRQ_secondaryInitSRX) for ll_processBasicIRQ_secondaryInitSRX
    patch.o(i.LL_IRQHandler1) refers to patch.o(i.ll_processBasicIRQ_secScanTRX) for ll_processBasicIRQ_secScanTRX
    patch.o(i.LL_IRQHandler1) refers to patch.o(.data) for .data
    patch.o(i.LL_PLUS_LoadMACFromChipMAddr) refers to flash.o(i.check_chip_mAddr) for check_chip_mAddr
    patch.o(i.LL_PLUS_LoadMACFromChipMAddr) refers to flash.o(.data) for g_chipMAddr
    patch.o(i.LL_ProcessEvent1) refers to patch.o(.bss) for .bss
    patch.o(i.LL_Reset1) refers to patch.o(i.patch_linkBuf_init) for patch_linkBuf_init
    patch.o(i.LL_master_conn_event1) refers to patch.o(.data) for .data
    patch.o(i.LL_slave_conn_event2) refers to patch.o(i.LL_slave_conn_event3) for LL_slave_conn_event3
    patch.o(i.LL_slave_conn_event3) refers to rf_phy_driver.o(i.rf_phy_change_cfg0) for rf_phy_change_cfg0
    patch.o(i.LL_slave_conn_event3) refers to patch.o(.data) for .data
    patch.o(i._clk_apply_setting1) refers to patch.o(i.NVIC_EnableIRQ) for NVIC_EnableIRQ
    patch.o(i.check_16MXtal_by_rcTracking) refers to pwrmgr.o(_section_sram_code_) for hal_pwrmgr_enter_sleep_rtc_reset
    patch.o(i.check_16MXtal_by_rcTracking) refers to patch.o(.data) for .data
    patch.o(i.check_96MXtal_by_rcTracking) refers to patch.o(.data) for .data
    patch.o(i.clk_init) refers to patch.o(i._clk_apply_setting1) for _clk_apply_setting1
    patch.o(i.config_RTC1) refers to patch.o(i.isTimer5Running) for isTimer5Running
    patch.o(i.config_RTC1) refers to patch.o(i.read_TIM5_remainder_timer) for read_TIM5_remainder_timer
    patch.o(i.config_RTC1) refers to patch.o(.data) for .data
    patch.o(i.cusum_advance_slave_rx_window) refers to patch.o(.data) for .data
    patch.o(i.efuse_write_x) refers to patch.o(i.efuse_get_lock_state) for efuse_get_lock_state
    patch.o(i.efuse_write_x) refers to patch.o(i.get_even) for get_even
    patch.o(i.enlarge_rx_timeout_1st) refers to patch.o(i.cusum_advance_slave_rx_window) for cusum_advance_slave_rx_window
    patch.o(i.enlarge_rx_timeout_1st) refers to patch.o(.data) for .data
    patch.o(i.enterSleepProcess1) refers to patch.o(i.rc32k_cap_cal) for rc32k_cap_cal
    patch.o(i.enterSleepProcess1) refers to patch.o(i.osal_search_active_task) for osal_search_active_task
    patch.o(i.enterSleepProcess1) refers to patch.o(.data) for .data
    patch.o(i.global_config_hclk_related) refers to patch.o(.data) for .data
    patch.o(i.hal_rom_boot_init) refers to phy_sec_ext.o(i._rom_sec_boot_init) for _rom_sec_boot_init
    patch.o(i.hal_system_clock_change_active) refers to patch.o(i.sysClockChangeAllow) for sysClockChangeAllow
    patch.o(i.hal_system_clock_change_active) refers to patch.o(i.hal_system_clock_change_process) for hal_system_clock_change_process
    patch.o(i.hal_system_clock_change_active) refers to patch.o(i.clk_init) for clk_init
    patch.o(i.hal_system_clock_change_active) refers to rf_phy_driver.o(i.rf_phy_ini) for rf_phy_ini
    patch.o(i.hal_system_clock_change_active) refers to patch.o(.data) for .data
    patch.o(i.hal_system_clock_change_process0) refers to patch.o(i.global_config_hclk_related) for global_config_hclk_related
    patch.o(i.hal_system_clock_change_process0) refers to patch.o(.data) for .data
    patch.o(i.hal_system_clock_change_req) refers to patch.o(.data) for .data
    patch.o(i.llCalcMaxScanTime1) refers to patch.o(i.read_LL_remainder_time1) for read_LL_remainder_time1
    patch.o(i.llCalcMaxScanTime1) refers to patch.o(i.read_TIM5_remainder_timer) for read_TIM5_remainder_timer
    patch.o(i.llCalcMaxScanTime1) refers to patch.o(.data) for .data
    patch.o(i.llMasterEvt_TaskEndOk1) refers to patch.o(i.l2capPocessFragmentTxData) for l2capPocessFragmentTxData
    patch.o(i.llProcessMasterControlPacket1) refers to patch.o(.data) for .data
    patch.o(i.llProcessSlaveControlPacket1) refers to patch.o(.data) for .data
    patch.o(i.llProcessTxData1) refers to patch.o(i.ll_osal_mem_free) for ll_osal_mem_free
    patch.o(i.llProcessTxData1) refers to patch.o(.data) for .data
    patch.o(i.llReleaseConnId1) refers to patch.o(i.ll_osal_mem_free) for ll_osal_mem_free
    patch.o(i.llReleaseConnId1) refers to patch.o(i.ll_flow_ctrl_restore) for ll_flow_ctrl_restore
    patch.o(i.llSecAdvAllow1) refers to patch.o(i.read_LL_remainder_time1) for read_LL_remainder_time1
    patch.o(i.llSecAdvAllow1) refers to patch.o(.data) for .data
    patch.o(i.llSetupSecScan1) refers to rf_phy_driver.o(i.rf_phy_change_cfg0) for rf_phy_change_cfg0
    patch.o(i.llWriteTxData1) refers to patch.o(i.ll_osal_mem_alloc) for ll_osal_mem_alloc
    patch.o(i.ll_addTask1) refers to patch.o(.data) for .data
    patch.o(i.ll_adptive_adj_next_time1) refers to patch.o(i.cusum_advance_slave_rx_window) for cusum_advance_slave_rx_window
    patch.o(i.ll_adptive_adj_next_time1) refers to patch.o(.data) for .data
    patch.o(i.ll_check_multi_conn_macaddr) refers to patch.o(.data) for .data
    patch.o(i.ll_dbg_heap_statics) refers to patch.o(.data) for .data
    patch.o(i.ll_flow_ctrl_restore) refers to patch.o(.bss) for .bss
    patch.o(i.ll_generateTxBuffer1) refers to patch.o(.bss) for .bss
    patch.o(i.ll_hw_go1) refers to patch.o(i.ll_flow_ctrl_restore) for ll_flow_ctrl_restore
    patch.o(i.ll_hw_go1) refers to patch.o(i.enlarge_rx_timeout_1st) for enlarge_rx_timeout_1st
    patch.o(i.ll_hw_go1) refers to patch.o(i.ll_osal_mem_alloc) for ll_osal_mem_alloc
    patch.o(i.ll_hw_go1) refers to patch.o(i.llbuf_alloc_time_statics) for llbuf_alloc_time_statics
    patch.o(i.ll_hw_go1) refers to patch.o(.data) for .data
    patch.o(i.ll_hw_go1) refers to patch.o(.bss) for .bss
    patch.o(i.ll_hw_read_tfifo_rtlp1) refers to patch.o(i.ll_osal_mem_free) for ll_osal_mem_free
    patch.o(i.ll_multi_conn_llDevList_Init) refers to patch.o(.data) for .data
    patch.o(i.ll_osal_mem_alloc) refers to patch.o(.data) for .data
    patch.o(i.ll_osal_mem_alloc) refers to patch.o(.bss) for .bss
    patch.o(i.ll_osal_mem_free) refers to patch.o(.bss) for .bss
    patch.o(i.ll_osal_memory_statics) refers to patch.o(.data) for .data
    patch.o(i.ll_osalmem_init) refers to patch.o(.data) for .data
    patch.o(i.ll_patch_hclk_dynamic_chg) refers to patch.o(i.hal_system_clock_change_process0) for hal_system_clock_change_process0
    patch.o(i.ll_patch_master_extadv) refers to patch.o(i.llMasterEvt_TaskEndOk1) for llMasterEvt_TaskEndOk1
    patch.o(i.ll_patch_master_extadv) refers to patch.o(_func_xip_code_.LL_StartEncrypt1) for LL_StartEncrypt1
    patch.o(i.ll_patch_master_extadv) refers to patch.o(i.LL_ENC_Decrypt1) for LL_ENC_Decrypt1
    patch.o(i.ll_patch_master_extadv) refers to patch.o(_func_xip_code_.llProcessMasterControlProcedures1) for llProcessMasterControlProcedures1
    patch.o(i.ll_patch_master_extadv) refers to patch.o(i.ll_scheduler_singleconn) for ll_scheduler_singleconn
    patch.o(i.ll_patch_master_extadv) refers to patch.o(i.llProcessMasterControlPacket1) for llProcessMasterControlPacket1
    patch.o(i.ll_patch_mesh) refers to patch.o(_func_xip_code_.ll_patch_mesh_slave) for ll_patch_mesh_slave
    patch.o(i.ll_patch_mesh) refers to patch.o(i.llSecAdvAllow1) for llSecAdvAllow1
    patch.o(i.ll_patch_mesh) refers to patch.o(_func_xip_code_.llSetupSecAdvEvt1) for llSetupSecAdvEvt1
    patch.o(i.ll_patch_mesh) refers to patch.o(i.ll_scheduler_singleconn) for ll_scheduler_singleconn
    patch.o(i.ll_patch_mesh) refers to patch.o(i.ll_processBasicIRQ_secondaryAdvTRX0) for ll_processBasicIRQ_secondaryAdvTRX0
    patch.o(i.ll_patch_mesh) refers to patch.o(_func_xip_code_.LL_SetScanParam1) for LL_SetScanParam1
    patch.o(i.ll_patch_mesh) refers to patch.o(_func_xip_code_.LL_SetScanControl1) for LL_SetScanControl1
    patch.o(i.ll_patch_mesh) refers to patch.o(i.ll_processBasicIRQ_SRX0) for ll_processBasicIRQ_SRX0
    patch.o(i.ll_patch_mesh) refers to patch.o(i.ll_processBasicIRQ_ScanTRX0) for ll_processBasicIRQ_ScanTRX0
    patch.o(i.ll_patch_mesh) refers to patch.o(i.llSetupSecScan1) for llSetupSecScan1
    patch.o(i.ll_patch_mesh) refers to patch.o(i.llSetupScan1) for llSetupScan1
    patch.o(i.ll_patch_mesh) refers to patch.o(i.llCalcMaxScanTime1) for llCalcMaxScanTime1
    patch.o(i.ll_patch_mesh) refers to patch.o(i.ll_processBasicIRQ_secondaryScanSRX0) for ll_processBasicIRQ_secondaryScanSRX0
    patch.o(i.ll_patch_mesh_master) refers to patch.o(_func_xip_code_.ll_patch_mesh_slave) for ll_patch_mesh_slave
    patch.o(i.ll_patch_mesh_master) refers to patch.o(_func_xip_code_.ll_patch_secscan_activescan) for ll_patch_secscan_activescan
    patch.o(i.ll_patch_mesh_master) refers to patch.o(i.llMasterEvt_TaskEndOk1) for llMasterEvt_TaskEndOk1
    patch.o(i.ll_patch_mesh_master) refers to patch.o(i.move_to_master_function2) for move_to_master_function2
    patch.o(i.ll_patch_mesh_master) refers to patch.o(_func_xip_code_.LL_CreateConn1) for LL_CreateConn1
    patch.o(i.ll_patch_mesh_master) refers to patch.o(i.llSecAdvAllow1) for llSecAdvAllow1
    patch.o(i.ll_patch_mesh_master) refers to patch.o(_func_xip_code_.llSetupSecAdvEvt1) for llSetupSecAdvEvt1
    patch.o(i.ll_patch_mesh_master) refers to patch.o(i.ll_scheduler_singleconn) for ll_scheduler_singleconn
    patch.o(i.ll_patch_mesh_master) refers to patch.o(i.ll_processBasicIRQ_secondaryAdvTRX0) for ll_processBasicIRQ_secondaryAdvTRX0
    patch.o(i.ll_patch_mesh_master) refers to patch.o(_func_xip_code_.LL_SetScanParam1) for LL_SetScanParam1
    patch.o(i.ll_patch_mesh_master) refers to patch.o(_func_xip_code_.LL_SetScanControl1) for LL_SetScanControl1
    patch.o(i.ll_patch_mesh_master) refers to patch.o(i.ll_processBasicIRQ_SRX0) for ll_processBasicIRQ_SRX0
    patch.o(i.ll_patch_mesh_master) refers to patch.o(i.ll_processBasicIRQ_ScanTRX0) for ll_processBasicIRQ_ScanTRX0
    patch.o(i.ll_patch_mesh_master) refers to patch.o(i.llSetupSecScan1) for llSetupSecScan1
    patch.o(i.ll_patch_mesh_master) refers to patch.o(i.llSetupScan1) for llSetupScan1
    patch.o(i.ll_patch_mesh_master) refers to patch.o(i.llCalcMaxScanTime1) for llCalcMaxScanTime1
    patch.o(i.ll_patch_mesh_multi) refers to patch.o(_func_xip_code_.ll_patch_mesh_slave) for ll_patch_mesh_slave
    patch.o(i.ll_patch_mesh_multi) refers to patch.o(i.llSecAdvAllow1) for llSecAdvAllow1
    patch.o(i.ll_patch_mesh_multi) refers to patch.o(_func_xip_code_.llSetupSecAdvEvt1) for llSetupSecAdvEvt1
    patch.o(i.ll_patch_mesh_multi) refers to patch.o(i.ll_scheduler_multiconn) for ll_scheduler_multiconn
    patch.o(i.ll_patch_mesh_multi) refers to patch.o(i.ll_processBasicIRQ_secondaryAdvTRX0) for ll_processBasicIRQ_secondaryAdvTRX0
    patch.o(i.ll_patch_mesh_multi) refers to patch.o(_func_xip_code_.LL_SetScanParam1) for LL_SetScanParam1
    patch.o(i.ll_patch_mesh_multi) refers to patch.o(_func_xip_code_.LL_SetScanControl1) for LL_SetScanControl1
    patch.o(i.ll_patch_mesh_multi) refers to patch.o(i.ll_processBasicIRQ_SRX0) for ll_processBasicIRQ_SRX0
    patch.o(i.ll_patch_mesh_multi) refers to patch.o(i.ll_processBasicIRQ_ScanTRX0) for ll_processBasicIRQ_ScanTRX0
    patch.o(i.ll_patch_mesh_multi) refers to patch.o(i.llSetupSecScan1) for llSetupSecScan1
    patch.o(i.ll_patch_mesh_multi) refers to patch.o(i.llSetupScan1) for llSetupScan1
    patch.o(i.ll_patch_mesh_multi) refers to patch.o(i.llCalcMaxScanTime1) for llCalcMaxScanTime1
    patch.o(i.ll_patch_mesh_multi) refers to patch.o(i.ll_addTask1) for ll_addTask1
    patch.o(i.ll_patch_mesh_multi) refers to patch.o(i.ll_processBasicIRQ_secondaryScanSRX0) for ll_processBasicIRQ_secondaryScanSRX0
    patch.o(i.ll_patch_multimaster) refers to lib_efuse3.o(i.lib_efuse_multirole) for lib_efuse_multirole
    patch.o(i.ll_patch_multimaster) refers to patch.o(_func_xip_code_.ll_patch_master) for ll_patch_master
    patch.o(i.ll_patch_multimaster) refers to patch.o(_func_xip_code_.ll_patch_secscan_activescan) for ll_patch_secscan_activescan
    patch.o(i.ll_patch_multimaster) refers to patch.o(i.llCalcMaxScanTime1) for llCalcMaxScanTime1
    patch.o(i.ll_patch_multimaster) refers to patch.o(i.ll_addTask1) for ll_addTask1
    patch.o(i.ll_patch_multimaster) refers to patch.o(i.llSetupSecScan1) for llSetupSecScan1
    patch.o(i.ll_patch_multimaster) refers to patch.o(i.ll_scheduler_multiconn) for ll_scheduler_multiconn
    patch.o(i.ll_patch_multimaster) refers to patch.o(i.ll_processBasicIRQ_secondaryInitSRX0) for ll_processBasicIRQ_secondaryInitSRX0
    patch.o(i.ll_patch_multislave) refers to lib_efuse3.o(i.lib_efuse_multirole) for lib_efuse_multirole
    patch.o(i.ll_patch_multislave) refers to patch.o(_func_xip_code_.ll_patch_slave) for ll_patch_slave
    patch.o(i.ll_patch_multislave) refers to patch.o(i.llSecAdvAllow1) for llSecAdvAllow1
    patch.o(i.ll_patch_multislave) refers to patch.o(i.ll_addTask1) for ll_addTask1
    patch.o(i.ll_patch_multislave) refers to patch.o(_func_xip_code_.llSetupSecAdvEvt1) for llSetupSecAdvEvt1
    patch.o(i.ll_patch_multislave) refers to patch.o(i.ll_scheduler_multiconn) for ll_scheduler_multiconn
    patch.o(i.ll_patch_multislave) refers to patch.o(i.ll_processBasicIRQ_secondaryAdvTRX0) for ll_processBasicIRQ_secondaryAdvTRX0
    patch.o(i.ll_patch_multislave) refers to patch.o(i.move_to_slave_function_multiConn) for move_to_slave_function_multiConn
    patch.o(i.ll_patch_restore) refers to patch.o(.data) for .data
    patch.o(i.ll_patch_restore) refers to patch.o(.bss) for .bss
    patch.o(i.ll_patch_slave_extadv) refers to patch.o(i.ll_scheduler_singleconn) for ll_scheduler_singleconn
    patch.o(i.ll_patch_slave_extadv) refers to patch.o(i.llSetupNextSlaveEvent1) for llSetupNextSlaveEvent1
    patch.o(i.ll_patch_slave_extadv) refers to patch.o(i.llProcessSlaveControlPacket1) for llProcessSlaveControlPacket1
    patch.o(i.ll_patch_slave_extadv) refers to patch.o(_func_xip_code_.llConnTerminate1) for llConnTerminate1
    patch.o(i.ll_patch_slave_extadv) refers to patch.o(_func_xip_code_.llProcessSlaveControlProcedures1) for llProcessSlaveControlProcedures1
    patch.o(i.ll_patch_slave_extadv) refers to patch.o(i.ll_adptive_adj_next_time1) for ll_adptive_adj_next_time1
    patch.o(i.ll_processBasicIRQ_SRX0) refers to patch.o(i.ll_hw_read_rfifo1) for ll_hw_read_rfifo1
    patch.o(i.ll_processBasicIRQ_SRX0) refers to patch.o(i.LL_AdvReportCback_Patch) for LL_AdvReportCback_Patch
    patch.o(i.ll_processBasicIRQ_SRX0) refers to patch.o(.data) for .data
    patch.o(i.ll_processBasicIRQ_SRX0) refers to patch.o(.bss) for .bss
    patch.o(i.ll_processBasicIRQ_ScanTRX0) refers to patch.o(i.ll_hw_read_rfifo1) for ll_hw_read_rfifo1
    patch.o(i.ll_processBasicIRQ_ScanTRX0) refers to patch.o(i.llAdjBoffUpperLimitFailure1) for llAdjBoffUpperLimitFailure1
    patch.o(i.ll_processBasicIRQ_ScanTRX0) refers to patch.o(i.llGenerateNextBackoffCount1) for llGenerateNextBackoffCount1
    patch.o(i.ll_processBasicIRQ_ScanTRX0) refers to patch.o(i.LL_AdvReportCback_Patch) for LL_AdvReportCback_Patch
    patch.o(i.ll_processBasicIRQ_ScanTRX0) refers to patch.o(i.llAdjBoffUpperLimitSuccess1) for llAdjBoffUpperLimitSuccess1
    patch.o(i.ll_processBasicIRQ_ScanTRX0) refers to patch.o(.bss) for .bss
    patch.o(i.ll_processBasicIRQ_secScanTRX0) refers to patch.o(i.ll_hw_read_rfifo1) for ll_hw_read_rfifo1
    patch.o(i.ll_processBasicIRQ_secScanTRX0) refers to patch.o(i.llAdjBoffUpperLimitFailure1) for llAdjBoffUpperLimitFailure1
    patch.o(i.ll_processBasicIRQ_secScanTRX0) refers to patch.o(i.llGenerateNextBackoffCount1) for llGenerateNextBackoffCount1
    patch.o(i.ll_processBasicIRQ_secScanTRX0) refers to patch.o(i.llAdjBoffUpperLimitSuccess1) for llAdjBoffUpperLimitSuccess1
    patch.o(i.ll_processBasicIRQ_secScanTRX0) refers to patch.o(.bss) for .bss
    patch.o(i.ll_processBasicIRQ_secondaryAdvSTX_advscan) refers to patch.o(i.ll_schedule_adv_scan_next_event) for ll_schedule_adv_scan_next_event
    patch.o(i.ll_processBasicIRQ_secondaryAdvSTX_advscan) refers to patch.o(.data) for .data
    patch.o(i.ll_processBasicIRQ_secondaryAdvTRX0) refers to patch.o(.data) for .data
    patch.o(i.ll_processBasicIRQ_secondaryAdvTRX_advscan) refers to patch.o(i.ll_schedule_adv_scan_next_event) for ll_schedule_adv_scan_next_event
    patch.o(i.ll_processBasicIRQ_secondaryAdvTRX_advscan) refers to patch.o(.data) for .data
    patch.o(i.ll_processBasicIRQ_secondaryInitSRX0) refers to patch.o(i.ll_hw_read_rfifo1) for ll_hw_read_rfifo1
    patch.o(i.ll_processBasicIRQ_secondaryInitSRX0) refers to patch.o(.data) for .data
    patch.o(i.ll_processBasicIRQ_secondaryScanSRX0) refers to patch.o(i.ll_hw_read_rfifo1) for ll_hw_read_rfifo1
    patch.o(i.ll_processBasicIRQ_secondaryScanSRX0) refers to patch.o(i.LL_AdvReportCback_Patch) for LL_AdvReportCback_Patch
    patch.o(i.ll_processBasicIRQ_secondaryScanSRX0) refers to patch.o(.data) for .data
    patch.o(i.ll_processBasicIRQ_secondaryScanSRX0_activescan) refers to patch.o(i.ll_hw_read_rfifo1) for ll_hw_read_rfifo1
    patch.o(i.ll_processBasicIRQ_secondaryScanSRX0_activescan) refers to patch.o(.data) for .data
    patch.o(i.ll_processBasicIRQ_secondaryScanSRX0_activescan) refers to patch.o(.bss) for .bss
    patch.o(i.ll_read_rxfifo1) refers to patch.o(.bss) for .bss
    patch.o(i.ll_save_multi_conn_macaddr) refers to patch.o(.data) for .data
    patch.o(i.ll_scheduler_multiconn) refers to patch.o(.data) for .data
    patch.o(i.llbuf_alloc_time_statics) refers to patch.o(.data) for .data
    patch.o(i.mesh_osal_mem_alloc) refers to patch.o(.data) for .data
    patch.o(i.mesh_osal_memory_statics) refers to patch.o(.data) for .data
    patch.o(i.mesh_osal_memory_statics) refers to patch.o(.conststring) for .conststring
    patch.o(i.mesh_osalmem_init) refers to patch.o(.data) for .data
    patch.o(i.move_to_slave_function_advscan) refers to patch.o(i.move_to_slave_function1) for move_to_slave_function1
    patch.o(i.move_to_slave_function_advscan) refers to patch.o(.data) for .data
    patch.o(i.move_to_slave_function_multiConn) refers to patch.o(i.ll_check_multi_conn_macaddr) for ll_check_multi_conn_macaddr
    patch.o(i.move_to_slave_function_multiConn) refers to patch.o(i.move_to_slave_function1) for move_to_slave_function1
    patch.o(i.move_to_slave_function_multiConn) refers to patch.o(i.ll_save_multi_conn_macaddr) for ll_save_multi_conn_macaddr
    patch.o(i.osal_idle_task_advscan) refers to patch.o(i.osal_pwrmgr_powerconserve_advscan) for osal_pwrmgr_powerconserve_advscan
    patch.o(i.osal_memory_statics) refers to main.o(.bss) for g_largeHeap
    patch.o(i.osal_pwrmgr_powerconserve_advscan) refers to patch.o(i.isTimer5Running) for isTimer5Running
    patch.o(i.osal_pwrmgr_powerconserve_advscan) refers to patch.o(i.read_TIM5_remainder_timer) for read_TIM5_remainder_timer
    patch.o(i.osal_pwrmgr_powerconserve_advscan) refers to patch.o(.data) for .data
    patch.o(i.sysClockChangeAllow) refers to patch.o(i.read_LL_remainder_time1) for read_LL_remainder_time1
    patch.o(i.wakeupProcess1) refers to patch.o(i.wakeup_init1) for wakeup_init1
    patch.o(i.wakeupProcess1) refers to rf_phy_driver.o(i.rf_phy_ini) for rf_phy_ini
    patch.o(i.wakeupProcess1) refers to patch.o(.data) for .data
    patch.o(i.wakeup_init1) refers to phy_sec_ext.o(i.efuse_init) for efuse_init
    patch.o(i.wakeup_init1) refers to patch.o(i.__wdt_init) for __wdt_init
    patch.o(i.wakeup_init1) refers to patch.o(i.hal_system_clock_change_process) for hal_system_clock_change_process
    patch.o(i.wakeup_init1) refers to patch.o(i.check_16MXtal_by_rcTracking) for check_16MXtal_by_rcTracking
    patch.o(i.wakeup_init1) refers to patch.o(i.check_96MXtal_by_rcTracking) for check_96MXtal_by_rcTracking
    patch.o(i.wakeup_init1) refers to patch.o(i.clk_init) for clk_init
    patch.o(i.wakeup_init1) refers to patch.o(i.NVIC_EnableIRQ) for NVIC_EnableIRQ
    patch.o(i.wakeup_init1) refers to patch.o(.data) for .data
    rf_phy_driver.o(i.DTM_UART_IRQHandler) refers to rf_phy_driver.o(.data) for .data
    rf_phy_driver.o(i.DTM_UART_IRQHandler) refers to rf_phy_driver.o(.bss) for .bss
    rf_phy_driver.o(i.rf_calibrate1) refers to rf_phy_driver.o(i.rf_tpCal_gen_cap_arrary) for rf_tpCal_gen_cap_arrary
    rf_phy_driver.o(i.rf_calibrate1) refers to rf_phy_driver.o(i.rc32k_calibration) for rc32k_calibration
    rf_phy_driver.o(i.rf_phy_direct_test) refers to clock.o(i.hal_clk_gate_disable) for hal_clk_gate_disable
    rf_phy_driver.o(i.rf_phy_direct_test) refers to my_printf.o(i.dbg_printf_init) for dbg_printf_init
    rf_phy_driver.o(i.rf_phy_direct_test) refers to my_printf.o(i.dbg_printf) for dbg_printf
    rf_phy_driver.o(i.rf_phy_direct_test) refers to rf_phy_driver.o(i.rf_phy_dtm_reg_process) for rf_phy_dtm_reg_process
    rf_phy_driver.o(i.rf_phy_direct_test) refers to rf_phy_driver.o(i.rf_phy_dtm_cmd_parse) for rf_phy_dtm_cmd_parse
    rf_phy_driver.o(i.rf_phy_direct_test) refers to rf_phy_driver.o(i.rf_phy_dtm_evt_send) for rf_phy_dtm_evt_send
    rf_phy_driver.o(i.rf_phy_direct_test) refers to rf_phy_driver.o(i.rf_phy_dtm_trigged) for rf_phy_dtm_trigged
    rf_phy_driver.o(i.rf_phy_direct_test) refers to rf_phy_driver.o(i.rf_phy_get_pktFoot) for rf_phy_get_pktFoot
    rf_phy_driver.o(i.rf_phy_direct_test) refers to clock.o(i.WaitUs) for WaitUs
    rf_phy_driver.o(i.rf_phy_direct_test) refers to rf_phy_driver.o(i.DTM_UART_IRQHandler) for DTM_UART_IRQHandler
    rf_phy_driver.o(i.rf_phy_direct_test) refers to rf_phy_driver.o(.data) for .data
    rf_phy_driver.o(i.rf_phy_direct_test) refers to rf_phy_driver.o(.bss) for .bss
    rf_phy_driver.o(i.rf_phy_dtm_ble_pkt_gen) refers to rf_phy_driver.o(i.gen_pn_prbs9) for gen_pn_prbs9
    rf_phy_driver.o(i.rf_phy_dtm_cmd_parse) refers to gpio.o(i.hal_gpio_pin2pin3_control) for hal_gpio_pin2pin3_control
    rf_phy_driver.o(i.rf_phy_dtm_cmd_parse) refers to rf_phy_driver.o(.data) for .data
    rf_phy_driver.o(i.rf_phy_dtm_evt_send) refers to uart.o(i.hal_uart_send_byte) for hal_uart_send_byte
    rf_phy_driver.o(i.rf_phy_dtm_ext_rx_demod_burst) refers to rf_phy_driver.o(i.rf_phy_dtm_init) for rf_phy_dtm_init
    rf_phy_driver.o(i.rf_phy_dtm_ext_rx_demod_burst) refers to rf_phy_driver.o(i.rf_phy_dtm_trigged) for rf_phy_dtm_trigged
    rf_phy_driver.o(i.rf_phy_dtm_ext_rx_demod_burst) refers to clock.o(i.hal_systick) for hal_systick
    rf_phy_driver.o(i.rf_phy_dtm_ext_rx_demod_burst) refers to rf_phy_driver.o(i.rf_phy_get_pktFoot) for rf_phy_get_pktFoot
    rf_phy_driver.o(i.rf_phy_dtm_ext_rx_demod_burst) refers to clock.o(i.hal_ms_intv) for hal_ms_intv
    rf_phy_driver.o(i.rf_phy_dtm_ext_rx_demod_burst) refers to rf_phy_driver.o(i.rf_phy_dtm_stop) for rf_phy_dtm_stop
    rf_phy_driver.o(i.rf_phy_dtm_ext_tx_mod_burst) refers to rf_phy_driver.o(i.rf_phy_dtm_init) for rf_phy_dtm_init
    rf_phy_driver.o(i.rf_phy_dtm_ext_tx_mod_burst) refers to rf_phy_driver.o(i.rf_phy_dtm_trigged) for rf_phy_dtm_trigged
    rf_phy_driver.o(i.rf_phy_dtm_ext_tx_mod_burst) refers to rf_phy_driver.o(i.rf_phy_dtm_stop) for rf_phy_dtm_stop
    rf_phy_driver.o(i.rf_phy_dtm_ext_tx_modulation) refers to rf_phy_driver.o(i.rf_phy_dtm_init) for rf_phy_dtm_init
    rf_phy_driver.o(i.rf_phy_dtm_ext_tx_modulation) refers to rf_phy_driver.o(i.rf_phy_dtm_trigged) for rf_phy_dtm_trigged
    rf_phy_driver.o(i.rf_phy_dtm_ext_tx_modulation) refers to clock.o(i.WaitUs) for WaitUs
    rf_phy_driver.o(i.rf_phy_dtm_ext_tx_modulation) refers to rf_phy_driver.o(i.rf_phy_dtm_stop) for rf_phy_dtm_stop
    rf_phy_driver.o(i.rf_phy_dtm_ext_tx_singleTone) refers to rf_phy_driver.o(i.rf_phy_dtm_init) for rf_phy_dtm_init
    rf_phy_driver.o(i.rf_phy_dtm_ext_tx_singleTone) refers to rf_phy_driver.o(i.rf_phy_dtm_trigged) for rf_phy_dtm_trigged
    rf_phy_driver.o(i.rf_phy_dtm_ext_tx_singleTone) refers to clock.o(i.WaitUs) for WaitUs
    rf_phy_driver.o(i.rf_phy_dtm_ext_tx_singleTone) refers to rf_phy_driver.o(i.rf_phy_dtm_stop) for rf_phy_dtm_stop
    rf_phy_driver.o(i.rf_phy_dtm_reg_process) refers to uart.o(i.hal_uart_send_byte) for hal_uart_send_byte
    rf_phy_driver.o(i.rf_phy_dtm_reg_process) refers to rf_phy_driver.o(.data) for .data
    rf_phy_driver.o(i.rf_phy_dtm_reg_process) refers to rf_phy_driver.o(.bss) for .bss
    rf_phy_driver.o(i.rf_phy_dtm_trigged) refers to rf_phy_driver.o(i.rf_phy_ana_cfg) for rf_phy_ana_cfg
    rf_phy_driver.o(i.rf_phy_dtm_trigged) refers to rf_phy_driver.o(i.rf_phy_ini) for rf_phy_ini
    rf_phy_driver.o(i.rf_phy_dtm_trigged) refers to rf_phy_driver.o(i.rf_tpCal_cfg_avg) for rf_tpCal_cfg_avg
    rf_phy_driver.o(i.rf_phy_dtm_trigged) refers to rf_phy_driver.o(i.rf_phy_set_txPower) for rf_phy_set_txPower
    rf_phy_driver.o(i.rf_phy_dtm_trigged) refers to rf_phy_driver.o(i.rf_phy_dtm_ble_pkt_gen) for rf_phy_dtm_ble_pkt_gen
    rf_phy_driver.o(i.rf_phy_dtm_trigged) refers to rf_phy_driver.o(i.rf_phy_dtm_zigbee_pkt_gen) for rf_phy_dtm_zigbee_pkt_gen
    rf_phy_driver.o(i.rf_phy_ini) refers to rf_phy_driver.o(i.rf_phy_ana_cfg) for rf_phy_ana_cfg
    rf_phy_driver.o(i.rf_phy_ini) refers to rf_phy_driver.o(i.rf_phy_set_txPower) for rf_phy_set_txPower
    rf_phy_driver.o(i.rf_phy_ini) refers to rf_phy_driver.o(i.rf_phy_bb_cfg) for rf_phy_bb_cfg
    rf_phy_driver.o(i.rf_tpCal_cfg) refers to rf_phy_driver.o(i.rf_tp_cal) for rf_tp_cal
    rf_phy_driver.o(i.rf_tpCal_cfg_avg) refers to rf_phy_driver.o(i.rf_tp_cal) for rf_tp_cal
    rf_phy_driver.o(i.rf_tpCal_gen_cap_arrary) refers to rf_phy_driver.o(i.rf_tp_cal) for rf_tp_cal
    phy_sec_ext.o(i.PHY_Varify_Platform) refers to phy_sec_ext.o(.constdata) for .constdata
    phy_sec_ext.o(i._efuse_chip_version_check) refers to phy_sec_ext.o(i.finidv) for finidv
    phy_sec_ext.o(i._rom_efuse_version_init) refers to lib_efuse3.o(i.lib_efuse_load) for lib_efuse_load
    phy_sec_ext.o(i._rom_sec_boot_init) refers to phy_sec_ext.o(i.efuse_init) for efuse_init
    phy_sec_ext.o(i._rom_sec_boot_init) refers to phy_sec_ext.o(i._efuse_chip_version_check) for _efuse_chip_version_check
    phy_sec_ext.o(i.finidv) refers to phy_sec_ext.o(.data) for .data
    phy_sec_ext.o(i.finidv) refers to phy_sec_ext.o(.bss) for .bss
    phy_sec_ext.o(i.verify_mic) refers to phy_sec_ext.o(i.finidv) for finidv
    phy_sec_ext.o(i.verify_mic) refers to aes.o(i.flash_load_parition) for flash_load_parition
    phy_sec_ext.o(.data) refers to phy_sec_ext.o(.conststring) for .conststring
    lib_efuse3.o(i.lib_efuse_ble) refers to lib_efuse3.o(.data) for .data
    lib_efuse3.o(i.lib_efuse_chip_ver) refers to lib_efuse3.o(.data) for .data
    lib_efuse3.o(i.lib_efuse_load) refers to lib_efuse3.o(.data) for .data
    lib_efuse3.o(i.lib_efuse_lotnum) refers to lib_efuse3.o(.data) for .data
    lib_efuse3.o(i.lib_efuse_mesh) refers to lib_efuse3.o(.data) for .data
    lib_efuse3.o(i.lib_efuse_mft) refers to lib_efuse3.o(.data) for .data
    lib_efuse3.o(i.lib_efuse_multirole) refers to lib_efuse3.o(.data) for .data
    lib_efuse3.o(i.lib_efuse_pass_flg) refers to lib_efuse3.o(.data) for .data
    lib_efuse3.o(i.lib_efuse_prog_ver) refers to lib_efuse3.o(.data) for .data
    lib_efuse3.o(i.lib_efuse_site) refers to lib_efuse3.o(.data) for .data
    lib_efuse3.o(i.lib_efuse_time_stamp) refers to lib_efuse3.o(.data) for .data
    lib_efuse3.o(i.lib_efuse_zigbee) refers to lib_efuse3.o(.data) for .data
    lib_efuse3.o(i.lib_read_hw_version) refers to lib_efuse3.o(i.lib_efuse_load) for lib_efuse_load
    aes.o(i.KeyExpansion) refers to aes.o(i.getByte) for getByte
    aes.o(i.KeyExpansion) refers to aes.o(i.getBit) for getBit
    aes.o(i.KeyExpansion) refers to aes.o(.constdata) for .constdata
    aes.o(i.KeyExpansion) refers to aes.o(.data) for sBox
    aes.o(i.MixColumns) refers to aes.o(i.xtime) for xtime
    aes.o(i.SubBytes) refers to aes.o(.data) for sBox
    aes.o(i.flash_check_parition) refers to phy_sec_ext.o(.bss) for g_ota_sec_key
    aes.o(i.flash_load_parition) refers to phy_sec_ext.o(.bss) for g_ota_sec_key
    aes.o(i.is_crypto_app) refers to phy_sec_ext.o(i.finidv) for finidv
    aes.o(i.xtime) refers to aes.o(i.getBit) for getBit
    aes.o(i.xtime) refers to aes.o(i.getByte) for getByte
    entry.o(.ARM.Collect$$$$00000000) refers (Special) to entry10a.o(.ARM.Collect$$$$0000000D) for __rt_final_cpp
    entry.o(.ARM.Collect$$$$00000000) refers (Special) to entry11a.o(.ARM.Collect$$$$0000000F) for __rt_final_exit
    entry.o(.ARM.Collect$$$$00000000) refers (Special) to entry7b.o(.ARM.Collect$$$$00000008) for _main_clock
    entry.o(.ARM.Collect$$$$00000000) refers (Special) to entry8b.o(.ARM.Collect$$$$0000000A) for _main_cpp_init
    entry.o(.ARM.Collect$$$$00000000) refers (Special) to entry9a.o(.ARM.Collect$$$$0000000B) for _main_init
    entry.o(.ARM.Collect$$$$00000000) refers (Special) to entry5.o(.ARM.Collect$$$$00000004) for _main_scatterload
    entry.o(.ARM.Collect$$$$00000000) refers (Special) to entry2.o(.ARM.Collect$$$$00000001) for _main_stk
    malloc.o(i.free) refers to mvars.o(.data) for __microlib_freelist
    malloc.o(i.malloc) refers to mvars.o(.data) for __microlib_freelist_initialised
    malloc.o(i.malloc) refers to mvars.o(.data) for __microlib_freelist
    malloc.o(i.malloc) refers to startup_armcm0.o(HEAP) for __heap_base
    mallocr.o(i.__free$realloc) refers to mvars.o(.data) for __microlib_freelist
    mallocr.o(i.__malloc$realloc) refers to mallocr.o(i.internal_alloc) for internal_alloc
    mallocr.o(i.__malloc$realloc) refers to mvars.o(.data) for __microlib_freelist_initialised
    mallocr.o(i.__malloc$realloc) refers to startup_armcm0.o(HEAP) for __heap_base
    mallocr.o(i.__malloc$realloc) refers to mvars.o(.data) for __microlib_freelist
    mallocr.o(i.internal_alloc) refers to mvars.o(.data) for __microlib_freelist
    mallocr.o(i.realloc) refers to mallocr.o(i.__free$realloc) for __free$realloc
    mallocr.o(i.realloc) refers to mallocr.o(i.internal_alloc) for internal_alloc
    mallocr.o(i.realloc) refers to mallocr.o(i.__malloc$realloc) for __malloc$realloc
    mallocr.o(i.realloc) refers to mvars.o(.data) for __microlib_freelist
    malloca.o(i.__aligned_malloc) refers to mvars.o(.data) for __microlib_freelist
    malloca.o(i.__aligned_malloc) refers to mvars.o(.data) for __microlib_freelist_initialised
    malloca.o(i.__aligned_malloc) refers to startup_armcm0.o(HEAP) for __heap_base
    malloca.o(i.__free$memalign) refers to mvars.o(.data) for __microlib_freelist
    malloca.o(i.__malloc$memalign) refers to malloca.o(i.__aligned_malloc) for __aligned_malloc
    mallocra.o(i.__aligned_malloc$realloc) refers to mallocra.o(i.internal_alloc) for internal_alloc
    mallocra.o(i.__aligned_malloc$realloc) refers to startup_armcm0.o(HEAP) for __heap_base
    mallocra.o(i.__aligned_malloc$realloc) refers to mvars.o(.data) for __microlib_freelist
    mallocra.o(i.__aligned_malloc$realloc) refers to mvars.o(.data) for __microlib_freelist_initialised
    mallocra.o(i.__free$realloc$memalign) refers to mvars.o(.data) for __microlib_freelist
    mallocra.o(i.__malloc$realloc$memalign) refers to mallocra.o(i.__aligned_malloc$realloc) for __aligned_malloc$realloc
    mallocra.o(i.__realloc$memalign) refers to mallocra.o(i.__free$realloc$memalign) for __free$realloc$memalign
    mallocra.o(i.__realloc$memalign) refers to mallocra.o(i.internal_alloc) for internal_alloc
    mallocra.o(i.__realloc$memalign) refers to mallocra.o(i.__malloc$realloc$memalign) for __malloc$realloc$memalign
    mallocra.o(i.__realloc$memalign) refers to mvars.o(.data) for __microlib_freelist
    mallocra.o(i.internal_alloc) refers to mvars.o(.data) for __microlib_freelist
    fadd.o(.text) refers (Special) to iusefp.o(.text) for __I$use$fp
    fadd.o(.text) refers to fepilogue.o(.text) for _float_epilogue
    fmul.o(.text) refers (Special) to iusefp.o(.text) for __I$use$fp
    fdiv.o(.text) refers (Special) to iusefp.o(.text) for __I$use$fp
    fdiv.o(.text) refers to fepilogue.o(.text) for _float_round
    fscalb.o(.text) refers (Special) to iusefp.o(.text) for __I$use$fp
    dmul.o(.text) refers (Special) to iusefp.o(.text) for __I$use$fp
    dmul.o(.text) refers to depilogue.o(.text) for _double_epilogue
    ddiv.o(.text) refers (Special) to iusefp.o(.text) for __I$use$fp
    ddiv.o(.text) refers to depilogue.o(.text) for _double_round
    dscalb.o(.text) refers (Special) to iusefp.o(.text) for __I$use$fp
    fflti.o(.text) refers (Special) to iusefp.o(.text) for __I$use$fp
    fflti.o(.text) refers to fepilogue.o(.text) for _float_epilogue
    ffltui.o(.text) refers (Special) to iusefp.o(.text) for __I$use$fp
    ffltui.o(.text) refers to fepilogue.o(.text) for _float_epilogue
    dflti.o(.text) refers (Special) to iusefp.o(.text) for __I$use$fp
    dflti.o(.text) refers to depilogue.o(.text) for _double_epilogue
    f2d.o(.text) refers (Special) to iusefp.o(.text) for __I$use$fp
    d2f.o(.text) refers (Special) to iusefp.o(.text) for __I$use$fp
    d2f.o(.text) refers to fepilogue.o(.text) for _float_round
    entry2.o(.ARM.Collect$$$$00000001) refers to entry2.o(.ARM.Collect$$$$00002712) for __lit__00000000
    entry2.o(.ARM.Collect$$$$00002712) refers to startup_armcm0.o(STACK) for __initial_sp
    entry2.o(__vectab_stack_and_reset_area) refers to startup_armcm0.o(STACK) for __initial_sp
    entry2.o(__vectab_stack_and_reset_area) refers to entry.o(.ARM.Collect$$$$00000000) for __main
    entry5.o(.ARM.Collect$$$$00000004) refers to init.o(.text) for __scatterload
    entry9a.o(.ARM.Collect$$$$0000000B) refers to main.o(i.main) for main
    entry9b.o(.ARM.Collect$$$$0000000C) refers to main.o(i.main) for main
    depilogue.o(.text) refers to depilogue.o(i.__ARM_clz) for __ARM_clz
    depilogue.o(.text) refers to llshl.o(.text) for __aeabi_llsl
    depilogue.o(.text) refers to llushr.o(.text) for __aeabi_llsr
    init.o(.text) refers to entry5.o(.ARM.Collect$$$$00000004) for __main_after_scatterload


==============================================================================

Removing Unused input sections from the image.

    Removing main.o(.rev16_text), (4 bytes).
    Removing main.o(.revsh_text), (4 bytes).
    Removing main.o(.data), (1 bytes).
    Removing adc_demo.o(.rev16_text), (4 bytes).
    Removing adc_demo.o(.revsh_text), (4 bytes).
    Removing adc_main.o(.rev16_text), (4 bytes).
    Removing adc_main.o(.revsh_text), (4 bytes).
    Removing osal_adc.o(.rev16_text), (4 bytes).
    Removing osal_adc.o(.revsh_text), (4 bytes).
    Removing voice_circ_buff.o(.rev16_text), (4 bytes).
    Removing voice_circ_buff.o(.revsh_text), (4 bytes).
    Removing voice_circ_buff.o(i.CreateCircularBuffer), (40 bytes).
    Removing voice_circ_buff.o(i.DestroyCircularBuffer), (22 bytes).
    Removing voice_circ_buff.o(i.FillZeroes), (24 bytes).
    Removing voice_circ_buff.o(i.GetBufferEmptySize), (56 bytes).
    Removing voice_circ_buff.o(i.GetReadPtr), (4 bytes).
    Removing voice_circ_buff.o(i.GetWritePtr), (4 bytes).
    Removing voice_circ_buff.o(i.IsBufferEmpty), (16 bytes).
    Removing voice_circ_buff.o(i.IsBufferOverflow), (26 bytes).
    Removing voice_queue.o(.rev16_text), (4 bytes).
    Removing voice_queue.o(.revsh_text), (4 bytes).
    Removing voice_queue.o(i.InQueue), (80 bytes).
    Removing voice_queue.o(i.IsQueueEmpty), (24 bytes).
    Removing voice_queue.o(i.IsQueueFull), (32 bytes).
    Removing voice_queue.o(i.OutQueue), (52 bytes).
    Removing adc_poilling_demo.o(.rev16_text), (4 bytes).
    Removing adc_poilling_demo.o(.revsh_text), (4 bytes).
    Removing adc_compare_demo.o(.rev16_text), (4 bytes).
    Removing adc_compare_demo.o(.revsh_text), (4 bytes).
    Removing voice_demo.o(.rev16_text), (4 bytes).
    Removing voice_demo.o(.revsh_text), (4 bytes).
    Removing voice_demo.o(.bss), (100 bytes).
    Removing voice_demo.o(.bss), (100 bytes).
    Removing clock.o(.rev16_text), (4 bytes).
    Removing clock.o(.revsh_text), (4 bytes).
    Removing clock.o(_section_xip_code_), (80 bytes).
    Removing clock.o(i.WaitMs), (18 bytes).
    Removing clock.o(i.WaitUs), (44 bytes).
    Removing clock.o(i.hal_clk_gate_get), (36 bytes).
    Removing clock.o(i.hal_clk_get_modules_state), (18 bytes).
    Removing clock.o(i.hal_ms_intv), (40 bytes).
    Removing clock.o(i.hal_system_soft_reset), (36 bytes).
    Removing clock.o(i.hal_systick), (12 bytes).
    Removing gpio.o(.rev16_text), (4 bytes).
    Removing gpio.o(.revsh_text), (4 bytes).
    Removing gpio.o(i.hal_gpio_debug_mux), (28 bytes).
    Removing gpio.o(i.hal_gpio_ds_control), (32 bytes).
    Removing gpio.o(i.hal_gpio_fast_write), (32 bytes).
    Removing gpio.o(i.hal_gpio_wakeup_control), (68 bytes).
    Removing gpio.o(i.hal_gpio_wakeup_set), (124 bytes).
    Removing gpio.o(i.hal_gpio_write), (40 bytes).
    Removing gpio.o(i.hal_gpioin_unregister), (36 bytes).
    Removing gpio.o(i.hal_gpioretention_register), (40 bytes).
    Removing gpio.o(i.hal_gpioretention_unregister), (40 bytes).
    Removing gpio.o(.constdata), (46 bytes).
    Removing my_printf.o(.rev16_text), (4 bytes).
    Removing my_printf.o(.revsh_text), (4 bytes).
    Removing my_printf.o(i.my_dump_byte), (44 bytes).
    Removing uart.o(.rev16_text), (4 bytes).
    Removing uart.o(.revsh_text), (4 bytes).
    Removing uart.o(i.hal_uart_deinit), (48 bytes).
    Removing uart.o(i.hal_uart_get_parity_plan), (20 bytes).
    Removing uart.o(i.hal_uart_get_tx_ready), (32 bytes).
    Removing uart.o(i.hal_uart_send_byte), (76 bytes).
    Removing uart.o(i.hal_uart_set_parity_plan), (28 bytes).
    Removing uart.o(i.hal_uart_set_tx_buf), (72 bytes).
    Removing pwrmgr.o(.rev16_text), (4 bytes).
    Removing pwrmgr.o(.revsh_text), (4 bytes).
    Removing pwrmgr.o(_section_standby_code_), (360 bytes).
    Removing pwrmgr.o(_section_xip_code_), (56 bytes).
    Removing pwrmgr.o(i.clk_change_mod_restore), (40 bytes).
    Removing pwrmgr.o(i.hal_pwrmgr_LowCurrentLdo_disable), (20 bytes).
    Removing pwrmgr.o(i.hal_pwrmgr_clk_gate_config), (40 bytes).
    Removing pwrmgr.o(i.hal_pwrmgr_is_lock), (84 bytes).
    Removing pwrmgr.o(i.hal_pwrmgr_poweroff), (88 bytes).
    Removing adc.o(.rev16_text), (4 bytes).
    Removing adc.o(.revsh_text), (4 bytes).
    Removing adc.o(i.__NVIC_EnableIRQ), (24 bytes).
    Removing adc.o(i.adc_get_high_threshold_flag), (12 bytes).
    Removing adc.o(i.adc_set_high_threshold_flag), (12 bytes).
    Removing adc.o(i.hal_adc_clock_config), (40 bytes).
    Removing adc.o(i.hal_adc_compare_enable), (204 bytes).
    Removing adc.o(i.hal_adc_compare_start), (100 bytes).
    Removing adc.o(i.hal_adc_comppare_reset), (60 bytes).
    Removing adc.o(i.hal_adc_config_channel), (684 bytes).
    Removing adc.o(i.hal_adc_deinit), (20 bytes).
    Removing adc.o(i.hal_adc_load_calibration_value), (140 bytes).
    Removing adc.o(i.hal_adc_start), (272 bytes).
    Removing adc.o(i.hal_adc_value_cal), (320 bytes).
    Removing adc.o(i.hal_adc_value_read), (148 bytes).
    Removing adc.o(i.set_sampling_resolution), (176 bytes).
    Removing adc.o(.constdata), (36 bytes).
    Removing flash.o(.rev16_text), (4 bytes).
    Removing flash.o(.revsh_text), (4 bytes).
    Removing flash.o(_section_sram_code_), (68 bytes).
    Removing flash.o(i.LOG_CHIP_MADDR), (172 bytes).
    Removing flash.o(i._spif_read_status_reg_x), (108 bytes).
    Removing flash.o(i.check_chip_mAddr), (32 bytes).
    Removing flash.o(i.flash_write_word), (18 bytes).
    Removing flash.o(i.hal_flash_erase_all), (168 bytes).
    Removing flash.o(i.hal_flash_erase_block64), (172 bytes).
    Removing flash.o(i.hal_flash_erase_sector), (172 bytes).
    Removing flash.o(i.hal_flash_read), (180 bytes).
    Removing flash.o(i.hal_flash_write), (164 bytes).
    Removing flash.o(i.hal_flash_write_by_dma), (188 bytes).
    Removing flash.o(i.hal_get_flash_info), (12 bytes).
    Removing flash.o(i.read_chip_mAddr), (64 bytes).
    Removing flash.o(i.spif_wait_nobusy), (72 bytes).
    Removing voice.o(.rev16_text), (4 bytes).
    Removing voice.o(.revsh_text), (4 bytes).
    Removing voice.o(i.hal_voice_clear), (84 bytes).
    Removing jump_table.o(.rev16_text), (4 bytes).
    Removing jump_table.o(.revsh_text), (4 bytes).
    Removing startup_armcm0.o(HEAP), (3072 bytes).
    Removing system_armcm0.o(.rev16_text), (4 bytes).
    Removing system_armcm0.o(.revsh_text), (4 bytes).
    Removing system_armcm0.o(i.SystemCoreClockUpdate), (16 bytes).
    Removing patch.o(.rev16_text), (4 bytes).
    Removing patch.o(.revsh_text), (4 bytes).
    Removing patch.o(_func_xip_code_.HCI_LE_ConnUpdateCmd), (28 bytes).
    Removing patch.o(_func_xip_code_.HCI_LE_LtkReqNegReplyCmd), (40 bytes).
    Removing patch.o(_func_xip_code_.HCI_LE_LtkReqReplyCmd), (40 bytes).
    Removing patch.o(_func_xip_code_.HCI_LE_SetHostChanClassificationCmd), (88 bytes).
    Removing patch.o(_func_xip_code_.HCI_LE_SetRandomAddressCmd), (36 bytes).
    Removing patch.o(_func_xip_code_.LL_ConnUpdate1), (240 bytes).
    Removing patch.o(_func_xip_code_.LL_CreateConn1), (952 bytes).
    Removing patch.o(_func_xip_code_.LL_EncLtkNegReply), (76 bytes).
    Removing patch.o(_func_xip_code_.LL_EncLtkReply), (88 bytes).
    Removing patch.o(_func_xip_code_.LL_PLUS_GetCurrentPduDle), (56 bytes).
    Removing patch.o(_func_xip_code_.LL_PLUS_GetCurrentRSSI), (22 bytes).
    Removing patch.o(_func_xip_code_.LL_SetAdvControl1), (500 bytes).
    Removing patch.o(_func_xip_code_.LL_SetAdvControl_advscan), (620 bytes).
    Removing patch.o(_func_xip_code_.LL_SetAdvParam1), (120 bytes).
    Removing patch.o(_func_xip_code_.LL_SetRandomAddress1), (236 bytes).
    Removing patch.o(_func_xip_code_.LL_SetScanControl1), (396 bytes).
    Removing patch.o(_func_xip_code_.LL_SetScanControl_advscan), (500 bytes).
    Removing patch.o(_func_xip_code_.LL_SetScanParam1), (76 bytes).
    Removing patch.o(_func_xip_code_.LL_StartEncrypt1), (232 bytes).
    Removing patch.o(_func_xip_code_.LOG_PATCH_DATA_TIME), (2 bytes).
    Removing patch.o(_func_xip_code_.TRNG_INIT), (80 bytes).
    Removing patch.o(_func_xip_code_.TRNG_Output), (80 bytes).
    Removing patch.o(_func_xip_code_.TRNG_Rand), (160 bytes).
    Removing patch.o(_func_xip_code_.llConnTerminate1), (164 bytes).
    Removing patch.o(_func_xip_code_.llConnTerminate_advscan), (80 bytes).
    Removing patch.o(_func_xip_code_.llProcessMasterControlProcedures1), (1232 bytes).
    Removing patch.o(_func_xip_code_.llProcessSlaveControlProcedures1), (904 bytes).
    Removing patch.o(_func_xip_code_.llSetupSecAdvEvt1), (152 bytes).
    Removing patch.o(_func_xip_code_.ll_dbg_show), (884 bytes).
    Removing patch.o(_func_xip_code_.ll_patch_advscan), (172 bytes).
    Removing patch.o(_func_xip_code_.ll_patch_master), (152 bytes).
    Removing patch.o(_func_xip_code_.ll_patch_master_advance_llprocesstxdata), (36 bytes).
    Removing patch.o(_func_xip_code_.ll_patch_mesh_slave), (100 bytes).
    Removing patch.o(_func_xip_code_.ll_patch_multi), (12 bytes).
    Removing patch.o(_func_xip_code_.ll_patch_secscan_activescan), (24 bytes).
    Removing patch.o(_func_xip_code_.ll_patch_secscan_passivescan), (16 bytes).
    Removing patch.o(_func_xip_code_.ll_patch_slave), (104 bytes).
    Removing patch.o(_func_xip_code_.ll_patch_slave_advance_llprocesstxdata), (28 bytes).
    Removing patch.o(_func_xip_code_.pplus_enter_programming_mode), (140 bytes).
    Removing patch.o(_func_xip_code_.rflib_vesion), (18 bytes).
    Removing patch.o(i.LL_AdvReportCback_Patch), (48 bytes).
    Removing patch.o(i.LL_PLUS_LoadMACFromChipMAddr), (48 bytes).
    Removing patch.o(i.LL_PLUS_LoadMACFromFlash), (48 bytes).
    Removing patch.o(i.LL_Permit_Txdata), (44 bytes).
    Removing patch.o(i.LL_master_conn_event1), (88 bytes).
    Removing patch.o(i.LL_slave_conn_event2), (40 bytes).
    Removing patch.o(i.LL_slave_conn_event3), (440 bytes).
    Removing patch.o(i.TIM5_IRQHandler1), (64 bytes).
    Removing patch.o(i.chip_id_one_bit_hot_convter), (108 bytes).
    Removing patch.o(i.efuse_get_lock_state), (24 bytes).
    Removing patch.o(i.efuse_write_x), (168 bytes).
    Removing patch.o(i.enter_sleep_off_mode1), (20 bytes).
    Removing patch.o(i.get_even), (32 bytes).
    Removing patch.o(i.hal_system_clock_change_active), (152 bytes).
    Removing patch.o(i.hal_system_clock_change_process0), (120 bytes).
    Removing patch.o(i.hal_system_clock_change_req), (64 bytes).
    Removing patch.o(i.llAdjBoffUpperLimitFailure1), (56 bytes).
    Removing patch.o(i.llAdjBoffUpperLimitSuccess1), (40 bytes).
    Removing patch.o(i.llCalcMaxScanTime1), (96 bytes).
    Removing patch.o(i.llGenerateNextBackoffCount1), (36 bytes).
    Removing patch.o(i.llMasterEvt_TaskEndOk1), (352 bytes).
    Removing patch.o(i.llPermit_ctrl_procedure), (40 bytes).
    Removing patch.o(i.llProcessMasterControlPacket1), (124 bytes).
    Removing patch.o(i.llProcessSlaveControlPacket1), (120 bytes).
    Removing patch.o(i.llSecAdvAllow1), (96 bytes).
    Removing patch.o(i.llSetupAdv1), (20 bytes).
    Removing patch.o(i.llSetupNextSlaveEvent1), (52 bytes).
    Removing patch.o(i.llSetupScan1), (20 bytes).
    Removing patch.o(i.llSetupSecScan1), (232 bytes).
    Removing patch.o(i.llSetupStartEncRsp), (64 bytes).
    Removing patch.o(i.ll_addTask1), (320 bytes).
    Removing patch.o(i.ll_adptive_adj_next_time1), (300 bytes).
    Removing patch.o(i.ll_check_multi_conn_macaddr), (132 bytes).
    Removing patch.o(i.ll_dbg_heap_statics), (140 bytes).
    Removing patch.o(i.ll_hw_read_rfifo1), (116 bytes).
    Removing patch.o(i.ll_multi_conn_llDevList_Init), (12 bytes).
    Removing patch.o(i.ll_osal_memory_statics), (220 bytes).
    Removing patch.o(i.ll_osalmem_init), (68 bytes).
    Removing patch.o(i.ll_patch_hclk_dynamic_chg), (16 bytes).
    Removing patch.o(i.ll_patch_master_extadv), (68 bytes).
    Removing patch.o(i.ll_patch_mesh), (120 bytes).
    Removing patch.o(i.ll_patch_mesh_master), (144 bytes).
    Removing patch.o(i.ll_patch_mesh_multi), (128 bytes).
    Removing patch.o(i.ll_patch_multimaster), (184 bytes).
    Removing patch.o(i.ll_patch_multislave), (192 bytes).
    Removing patch.o(i.ll_patch_restore), (84 bytes).
    Removing patch.o(i.ll_patch_slave_extadv), (72 bytes).
    Removing patch.o(i.ll_processBasicIRQ_SRX0), (2320 bytes).
    Removing patch.o(i.ll_processBasicIRQ_ScanTRX0), (416 bytes).
    Removing patch.o(i.ll_processBasicIRQ_secScanTRX0), (380 bytes).
    Removing patch.o(i.ll_processBasicIRQ_secondaryAdvSTX_advscan), (136 bytes).
    Removing patch.o(i.ll_processBasicIRQ_secondaryAdvTRX0), (1068 bytes).
    Removing patch.o(i.ll_processBasicIRQ_secondaryAdvTRX_advscan), (1080 bytes).
    Removing patch.o(i.ll_processBasicIRQ_secondaryInitSRX0), (1156 bytes).
    Removing patch.o(i.ll_processBasicIRQ_secondaryScanSRX0), (424 bytes).
    Removing patch.o(i.ll_processBasicIRQ_secondaryScanSRX0_activescan), (728 bytes).
    Removing patch.o(i.ll_save_multi_conn_macaddr), (32 bytes).
    Removing patch.o(i.ll_schedule_adv_scan_next_event), (16 bytes).
    Removing patch.o(i.ll_scheduler_multiconn), (1028 bytes).
    Removing patch.o(i.ll_scheduler_singleconn), (92 bytes).
    Removing patch.o(i.mesh_osal_mem_alloc), (100 bytes).
    Removing patch.o(i.mesh_osal_mem_free), (24 bytes).
    Removing patch.o(i.mesh_osal_memory_statics), (160 bytes).
    Removing patch.o(i.mesh_osalmem_init), (68 bytes).
    Removing patch.o(i.move_to_master_function2), (72 bytes).
    Removing patch.o(i.move_to_slave_function1), (92 bytes).
    Removing patch.o(i.move_to_slave_function_advscan), (64 bytes).
    Removing patch.o(i.move_to_slave_function_multiConn), (56 bytes).
    Removing patch.o(i.osal_idle_task_advscan), (24 bytes).
    Removing patch.o(i.osal_memory_statics), (220 bytes).
    Removing patch.o(i.osal_pwrmgr_powerconserve_advscan), (332 bytes).
    Removing patch.o(i.read_LL_remainder_time1), (44 bytes).
    Removing patch.o(i.sysClockChangeAllow), (60 bytes).
    Removing patch.o(.constdata), (12 bytes).
    Removing patch.o(.constdata), (9 bytes).
    Removing patch.o(.conststring), (68 bytes).
    Removing rf_phy_driver.o(.rev16_text), (4 bytes).
    Removing rf_phy_driver.o(.revsh_text), (4 bytes).
    Removing rf_phy_driver.o(i.DTM_UART_IRQHandler), (80 bytes).
    Removing rf_phy_driver.o(i.gen_pn_prbs9), (116 bytes).
    Removing rf_phy_driver.o(i.rf_phy_direct_test), (1234 bytes).
    Removing rf_phy_driver.o(i.rf_phy_dtm_ble_pkt_gen), (132 bytes).
    Removing rf_phy_driver.o(i.rf_phy_dtm_cmd_parse), (980 bytes).
    Removing rf_phy_driver.o(i.rf_phy_dtm_evt_send), (236 bytes).
    Removing rf_phy_driver.o(i.rf_phy_dtm_ext_acc_code_set), (12 bytes).
    Removing rf_phy_driver.o(i.rf_phy_dtm_ext_rx_demod_burst), (372 bytes).
    Removing rf_phy_driver.o(i.rf_phy_dtm_ext_tx_mod_burst), (212 bytes).
    Removing rf_phy_driver.o(i.rf_phy_dtm_ext_tx_modulation), (108 bytes).
    Removing rf_phy_driver.o(i.rf_phy_dtm_ext_tx_singleTone), (96 bytes).
    Removing rf_phy_driver.o(i.rf_phy_dtm_init), (56 bytes).
    Removing rf_phy_driver.o(i.rf_phy_dtm_reg_process), (176 bytes).
    Removing rf_phy_driver.o(i.rf_phy_dtm_stop), (40 bytes).
    Removing rf_phy_driver.o(i.rf_phy_dtm_trigged), (812 bytes).
    Removing rf_phy_driver.o(i.rf_phy_dtm_zigbee_pkt_gen), (120 bytes).
    Removing rf_phy_driver.o(i.rf_phy_get_pktFoot), (48 bytes).
    Removing rf_phy_driver.o(i.rf_phy_get_pktFoot_fromPkt), (38 bytes).
    Removing rf_phy_driver.o(i.rf_rxDcoc_cfg), (288 bytes).
    Removing rf_phy_driver.o(i.rf_tpCal_cfg), (56 bytes).
    Removing rf_phy_driver.o(i.rf_tpCal_cfg_avg), (192 bytes).
    Removing rf_phy_driver.o(.bss), (32 bytes).
    Removing rf_phy_driver.o(.data), (8 bytes).
    Removing phy_sec_ext.o(.rev16_text), (4 bytes).
    Removing phy_sec_ext.o(.revsh_text), (4 bytes).
    Removing phy_sec_ext.o(i.PHY_Varify_Platform), (40 bytes).
    Removing phy_sec_ext.o(i.verify_mic), (32 bytes).
    Removing phy_sec_ext.o(.constdata), (16 bytes).
    Removing phy_sec_ext.o(.conststring), (17 bytes).
    Removing phy_sec_ext.o(.data), (4 bytes).
    Removing phy_sec_ext.o(.data), (1 bytes).
    Removing phy_sec_ext.o(.data), (1 bytes).
    Removing phy_sec_ext.o(.data), (1 bytes).
    Removing lib_efuse3.o(i.lib_efuse_ble), (16 bytes).
    Removing lib_efuse3.o(i.lib_efuse_chip_ver), (16 bytes).
    Removing lib_efuse3.o(i.lib_efuse_lotnum), (16 bytes).
    Removing lib_efuse3.o(i.lib_efuse_mesh), (16 bytes).
    Removing lib_efuse3.o(i.lib_efuse_mft), (16 bytes).
    Removing lib_efuse3.o(i.lib_efuse_multirole), (16 bytes).
    Removing lib_efuse3.o(i.lib_efuse_pass_flg), (16 bytes).
    Removing lib_efuse3.o(i.lib_efuse_prog_ver), (16 bytes).
    Removing lib_efuse3.o(i.lib_efuse_site), (16 bytes).
    Removing lib_efuse3.o(i.lib_efuse_time_stamp), (16 bytes).
    Removing lib_efuse3.o(i.lib_efuse_zigbee), (16 bytes).
    Removing lib_efuse3.o(i.lib_read_hw_version), (36 bytes).
    Removing aes.o(.rev16_text), (4 bytes).
    Removing aes.o(.revsh_text), (4 bytes).
    Removing aes.o(i.AddRoundKey), (48 bytes).
    Removing aes.o(i.FFmul), (88 bytes).
    Removing aes.o(i.KeyExpansion), (700 bytes).
    Removing aes.o(i.MixColumns), (436 bytes).
    Removing aes.o(i.ShiftRows), (104 bytes).
    Removing aes.o(i.SubBytes), (68 bytes).
    Removing aes.o(i.affTrans), (252 bytes).
    Removing aes.o(i.flash_check_parition), (68 bytes).
    Removing aes.o(i.flash_load_parition), (68 bytes).
    Removing aes.o(i.getBit), (28 bytes).
    Removing aes.o(i.getByte), (28 bytes).
    Removing aes.o(i.is_crypto_app), (16 bytes).
    Removing aes.o(i.printfStats), (2 bytes).
    Removing aes.o(i.xor128bit), (24 bytes).
    Removing aes.o(i.xtime), (230 bytes).
    Removing aes.o(.constdata), (32 bytes).
    Removing aes.o(.data), (512 bytes).
    Removing fadd.o(.text), (178 bytes).
    Removing fmul.o(.text), (122 bytes).
    Removing fdiv.o(.text), (124 bytes).
    Removing fscalb.o(.text), (24 bytes).
    Removing dmul.o(.text), (208 bytes).
    Removing ddiv.o(.text), (240 bytes).
    Removing dscalb.o(.text), (44 bytes).
    Removing fflti.o(.text), (22 bytes).
    Removing ffltui.o(.text), (14 bytes).
    Removing dflti.o(.text), (40 bytes).
    Removing f2d.o(.text), (40 bytes).
    Removing d2f.o(.text), (56 bytes).
    Removing fepilogue.o(.text), (130 bytes).
    Removing depilogue.o(.text), (190 bytes).
    Removing adc.o(i.__ARM_common_switch8), (26 bytes).
    Removing patch.o(i.__psr), (6 bytes).
    Removing depilogue.o(i.__ARM_clz), (46 bytes).

318 unused section(s) (total 43874 bytes) removed from the image.

==============================================================================

Adding Veneers to the image

    Adding TT veneer (12 bytes, Long) for call to 'drv_disable_irq' from patch.o(_section_xip_code_).
    Adding TT veneer (12 bytes, Long) for call to 'LL_CreateConnCancel0' from patch.o(_section_xip_code_).
    Adding TT veneer (12 bytes, Long) for call to 'drv_enable_irq' from patch.o(_section_xip_code_).
    Adding TT veneer (12 bytes, Long) for call to '_rom_efuse_version_init' from patch.o(_section_xip_code_).
    Adding TT veneer (12 bytes, Long) for call to 'global_config_hclk_related' from patch.o(_section_xip_code_).
    Adding TT veneer (12 bytes, Long) for call to 'enableSleep' from patch.o(_section_xip_code_).
    Adding TT veneer (12 bytes, Long) for call to 'setSleepMode' from patch.o(_section_xip_code_).
    Adding TT veneer (12 bytes, Long) for call to 'dbg_printf' from adc.o(i.adc_compare_cb).
    Adding TT veneer (12 bytes, Long) for call to '__aeabi_memclr4' from adc.o(i.clear_adcc_cfg).
    Adding TT veneer (12 bytes, Long) for call to 'hal_pwrmgr_register' from adc.o(i.hal_adc_init).
    Adding TT veneer (12 bytes, Long) for call to 'hal_clk_reset' from adc.o(i.hal_adc_stop).
    Adding TT veneer (12 bytes, Long) for call to 'hal_clk_gate_disable' from adc.o(i.hal_adc_stop).
    Adding TT veneer (12 bytes, Long) for call to 'hal_pwrmgr_unlock' from adc.o(i.hal_adc_stop).
    Adding TT veneer (12 bytes, Long) for call to 'hal_clk_gate_enable' from voice.o(i.hal_voice_config).
    Adding TT veneer (12 bytes, Long) for call to '__aeabi_memcpy' from voice.o(i.hal_voice_config).
    Adding TT veneer (12 bytes, Long) for call to 'hal_pwrmgr_unregister' from voice.o(i.hal_voice_deinit).
    Adding TT veneer (12 bytes, Long) for call to 'hal_pwrmgr_lock' from voice.o(i.hal_voice_start).
    Adding TT veneer (12 bytes, Long) for call to 'drv_disable_irq' from patch.o(_func_xip_code_.LL_Disconnect1).
    Adding TT veneer (12 bytes, Long) for call to 'LL_Disconnect0' from patch.o(_func_xip_code_.LL_Disconnect1).
    Adding TT veneer (12 bytes, Long) for call to 'drv_enable_irq' from patch.o(_func_xip_code_.LL_Disconnect1).
    Adding TT veneer (12 bytes, Long) for call to '__aeabi_memclr4' from patch.o(_func_xip_code_.LL_InitConnectContext).
    Adding TT veneer (12 bytes, Long) for call to 'LL_SetDataLengh0' from patch.o(_func_xip_code_.LL_SetDataLengh1).
    Adding TT veneer (12 bytes, Long) for call to 'llEnqueueDataQ' from patch.o(_func_xip_code_.LL_TxData1).
    Adding TT veneer (12 bytes, Long) for call to 'llProcessTxData' from patch.o(_func_xip_code_.LL_TxData1).
    Adding TT veneer (12 bytes, Long) for call to 'config_RTC' from pwrmgr.o(_section_sram_code_).
    Adding TT veneer (12 bytes, Long) for call to 'enter_sleep_off_mode' from pwrmgr.o(_section_sram_code_).
    Adding TT veneer (12 bytes, Long) for call to '__aeabi_memcpy' from voice_circ_buff.o(i.FillBuffer).
    Adding TT veneer (12 bytes, Long) for call to '__aeabi_memclr' from voice_circ_buff.o(i.InitCircularBuffer).
    Adding TT veneer (12 bytes, Long) for call to 'LL_ENC_AES128_Encrypt0' from patch.o(i.LL_ENC_AES128_Encrypt1).
    Adding TT veneer (12 bytes, Long) for call to 'LL_ENC_LoadKey' from patch.o(i.LL_ENC_Decrypt1).
    Adding TT veneer (12 bytes, Long) for call to 'LL_ENC_GenerateNonce' from patch.o(i.LL_ENC_Decrypt1).
    Adding TT veneer (12 bytes, Long) for call to '__aeabi_uread4' from patch.o(i.LL_ENC_Decrypt1).
    Adding TT veneer (12 bytes, Long) for call to 'read_current_fine_time' from patch.o(i.LL_IRQHandler1).
    Adding TT veneer (12 bytes, Long) for call to 'll_debug_output' from patch.o(i.LL_IRQHandler1).
    Adding TT veneer (12 bytes, Long) for call to 'll_hw_get_irq_status' from patch.o(i.LL_IRQHandler1).
    Adding TT veneer (12 bytes, Long) for call to 'll_hw_get_tr_mode' from patch.o(i.LL_IRQHandler1).
    Adding TT veneer (12 bytes, Long) for call to 'll_hw_clr_irq' from patch.o(i.LL_IRQHandler1).
    Adding TT veneer (12 bytes, Long) for call to 'll_processExtAdvIRQ' from patch.o(i.LL_IRQHandler1).
    Adding TT veneer (12 bytes, Long) for call to 'll_processExtScanIRQ' from patch.o(i.LL_IRQHandler1).
    Adding TT veneer (12 bytes, Long) for call to 'll_processExtInitIRQ' from patch.o(i.LL_IRQHandler1).
    Adding TT veneer (12 bytes, Long) for call to 'll_processPrdAdvIRQ' from patch.o(i.LL_IRQHandler1).
    Adding TT veneer (12 bytes, Long) for call to 'll_processPrdScanIRQ' from patch.o(i.LL_IRQHandler1).
    Adding TT veneer (12 bytes, Long) for call to 'll_processBasicIRQ' from patch.o(i.LL_IRQHandler1).
    Adding TT veneer (12 bytes, Long) for call to 'll_schedule_next_event' from patch.o(i.LL_IRQHandler1).
    Adding TT veneer (12 bytes, Long) for call to 'llSecAdvAllow' from patch.o(i.LL_IRQHandler1).
    Adding TT veneer (12 bytes, Long) for call to 'llSetupSecAdvEvt' from patch.o(i.LL_IRQHandler1).
    Adding TT veneer (12 bytes, Long) for call to 'll_hw_set_rx_timeout' from patch.o(i.LL_IRQHandler1).
    Adding TT veneer (12 bytes, Long) for call to 'llSetupSecScan' from patch.o(i.LL_IRQHandler1).
    Adding TT veneer (12 bytes, Long) for call to 'llSetupSecInit' from patch.o(i.LL_IRQHandler1).
    Adding TT veneer (12 bytes, Long) for call to 'LL_DisconnectCback' from patch.o(i.LL_ProcessEvent1).
    Adding TT veneer (12 bytes, Long) for call to 'LL_ProcessEvent0' from patch.o(i.LL_ProcessEvent1).
    Adding TT veneer (12 bytes, Long) for call to 'LL_Reset0' from patch.o(i.LL_Reset1).
    Adding TT veneer (12 bytes, Long) for call to 'LL_set_default_conn_params0' from patch.o(i.LL_set_default_conn_params1).
    Adding TT veneer (12 bytes, Long) for call to 'efuse_read' from phy_sec_ext.o(i._efuse_chip_version_check).
    Adding TT veneer (12 bytes, Long) for call to 'rom_uart_init' from jump_table.o(i._hard_fault).
    Adding TT veneer (12 bytes, Long) for call to 'log_printf' from jump_table.o(i._hard_fault).
    Adding TT veneer (12 bytes, Long) for call to 'rtc_get_counter' from jump_table.o(i._hard_fault).
    Adding TT veneer (12 bytes, Long) for call to 'osal_init_system' from adc_main.o(i.app_main).
    Adding TT veneer (12 bytes, Long) for call to 'osal_pwrmgr_device' from adc_main.o(i.app_main).
    Adding TT veneer (12 bytes, Long) for call to 'osal_start_system' from adc_main.o(i.app_main).
    Adding TT veneer (12 bytes, Long) for call to 'WaitRTCCount' from patch.o(i.check_16MXtal_by_rcTracking).
    Adding TT veneer (12 bytes, Long) for call to 'set_sleep_flag' from patch.o(i.check_16MXtal_by_rcTracking).
    Adding TT veneer (12 bytes, Long) for call to 'read_LL_remainder_time' from patch.o(i.config_RTC1).
    Adding TT veneer (12 bytes, Long) for call to 'll_hw_set_rx_timeout_1st' from patch.o(i.enlarge_rx_timeout_1st).
    Adding TT veneer (12 bytes, Long) for call to 'enterSleepProcess0' from patch.o(i.enterSleepProcess1).
    Adding TT veneer (12 bytes, Long) for call to 'LL_ENC_AES128_Encrypt' from phy_sec_ext.o(i.finidv).
    Adding TT veneer (12 bytes, Long) for call to 'osal_memcmp' from phy_sec_ext.o(i.finidv).
    Adding TT veneer (12 bytes, Long) for call to '__aeabi_memcpy4' from main.o(i.hal_low_power_io_init).
    Adding TT veneer (12 bytes, Long) for call to 'hal_gpio_pull_set' from main.o(i.hal_low_power_io_init).
    Adding TT veneer (12 bytes, Long) for call to 'disableSleep' from pwrmgr.o(i.hal_pwrmgr_init).
    Adding TT veneer (12 bytes, Long) for call to 'enableSleep' from pwrmgr.o(i.hal_pwrmgr_init).
    Adding TT veneer (12 bytes, Long) for call to 'osal_mem_set_heap' from main.o(i.hal_rfphy_init).
    Adding TT veneer (12 bytes, Long) for call to 'spif_config' from flash.o(i.hw_spif_cache_config).
    Adding TT veneer (12 bytes, Long) for call to 'spif_read_id' from flash.o(i.hw_spif_cache_config).
    Adding TT veneer (12 bytes, Long) for call to 'llProcessTxData0' from patch.o(i.llProcessTxData1).
    Adding TT veneer (12 bytes, Long) for call to 'llReleaseConnId0' from patch.o(i.llReleaseConnId1).
    Adding TT veneer (12 bytes, Long) for call to 'llSlaveEvt_TaskEndOk0' from patch.o(i.llSlaveEvt_TaskEndOk1).
    Adding TT veneer (12 bytes, Long) for call to 'getTxBufferFree' from patch.o(i.llWriteTxData1).
    Adding TT veneer (12 bytes, Long) for call to 'get_tx_write_ptr' from patch.o(i.llWriteTxData1).
    Adding TT veneer (12 bytes, Long) for call to 'LL_ENC_Encrypt' from patch.o(i.llWriteTxData1).
    Adding TT veneer (12 bytes, Long) for call to 'update_tx_write_ptr' from patch.o(i.llWriteTxData1).
    Adding TT veneer (12 bytes, Long) for call to 'll_hw_write_tfifo' from patch.o(i.ll_generateTxBuffer1).
    Adding TT veneer (12 bytes, Long) for call to 'll_hw_get_tfifo_wrptr' from patch.o(i.ll_generateTxBuffer1).
    Adding TT veneer (12 bytes, Long) for call to 'getTxBufferSize' from patch.o(i.ll_generateTxBuffer1).
    Adding TT veneer (12 bytes, Long) for call to 'get_tx_read_ptr' from patch.o(i.ll_generateTxBuffer1).
    Adding TT veneer (12 bytes, Long) for call to 'update_tx_read_ptr' from patch.o(i.ll_generateTxBuffer1).
    Adding TT veneer (12 bytes, Long) for call to 'llEnqueueCtrlPkt' from patch.o(i.ll_generateTxBuffer1).
    Adding TT veneer (12 bytes, Long) for call to 'll_hw_set_loop_timeout' from patch.o(i.ll_hw_go1).
    Adding TT veneer (12 bytes, Long) for call to 'get_rx_write_ptr' from patch.o(i.ll_hw_go1).
    Adding TT veneer (12 bytes, Long) for call to 'getRxBufferFree' from patch.o(i.ll_hw_go1).
    Adding TT veneer (12 bytes, Long) for call to 'set_max_length' from patch.o(i.ll_hw_go1).
    Adding TT veneer (12 bytes, Long) for call to 'll_hw_read_tfifo_packet' from patch.o(i.ll_hw_read_tfifo_rtlp1).
    Adding TT veneer (12 bytes, Long) for call to 'osal_mem_alloc' from patch.o(i.ll_osal_mem_alloc).
    Adding TT veneer (12 bytes, Long) for call to 'll_read_rxfifo0' from patch.o(i.ll_read_rxfifo1).
    Adding TT veneer (12 bytes, Long) for call to 'drv_irq_init' from main.o(i.main).
    Adding TT veneer (12 bytes, Long) for call to 'init_config' from main.o(i.main).
    Adding TT veneer (12 bytes, Long) for call to 'hal_gpio_init' from main.o(i.main).
    Adding TT veneer (12 bytes, Long) for call to 'hal_adc_init' from main.o(i.main).
    Adding TT veneer (12 bytes, Long) for call to '__aeabi_uidivmod' from my_printf.o(i.number).
    Adding TT veneer (12 bytes, Long) for call to 'osal_memset' from osal_adc.o(i.osalInitTasks).
    Adding TT veneer (12 bytes, Long) for call to 'LL_Init' from osal_adc.o(i.osalInitTasks).
    Adding TT veneer (12 bytes, Long) for call to 'osal_pwrmgr_powerconserve0' from patch.o(i.osal_idle_task0).
    Adding TT veneer (12 bytes, Long) for call to 'll_hw_set_crc_fmt' from rf_phy_driver.o(i.rf_phy_bb_cfg).
    Adding TT veneer (12 bytes, Long) for call to 'll_hw_tx2rx_timing_config' from rf_phy_driver.o(i.rf_phy_ini).
    Adding TT veneer (12 bytes, Long) for call to '__ARM_common_switch8' from rf_phy_driver.o(i.rf_tp_cal).
    Adding TT veneer (12 bytes, Long) for call to 'osal_stop_timerEx' from voice_demo.o(i.stop_voice_task).
    Adding TT veneer (12 bytes, Long) for call to 'hal_voice_stop' from voice_demo.o(i.stop_voice_task).
    Adding TT veneer (12 bytes, Long) for call to 'hal_voice_deinit' from voice_demo.o(i.stop_voice_task).
    Adding TT veneer (12 bytes, Long) for call to 'osal_start_timerEx' from voice_demo.o(i.stop_voice_task).
    Adding TT veneer (12 bytes, Long) for call to 'hal_gpio_fmux' from uart.o(i.uart_hw_deinit).
    Adding TT veneer (12 bytes, Long) for call to 'clk_get_pclk' from uart.o(i.uart_hw_init).
    Adding TT veneer (12 bytes, Long) for call to 'hal_gpio_fmux_set' from uart.o(i.uart_hw_init).
    Adding TT veneer (12 bytes, Long) for call to 'hal_gpio_pin_init' from voice_demo.o(i.voiceCaptureInit).
    Adding TT veneer (12 bytes, Long) for call to 'hal_voice_config' from voice_demo.o(i.voiceCaptureInit).
    Adding TT veneer (12 bytes, Long) for call to 'hal_poilling_adc_stop' from voice_demo.o(i.voiceCaptureStart).
    Adding TT veneer (12 bytes, Long) for call to 'hal_voice_init' from voice_demo.o(i.voiceCaptureStart).
    Adding TT veneer (12 bytes, Long) for call to 'hal_voice_start' from voice_demo.o(i.voiceCaptureStart).
    Adding TT veneer (12 bytes, Long) for call to 'hal_gpioin_register' from voice_demo.o(i.voice_Init).
    Adding TT veneer (12 bytes, Long) for call to 'osal_msg_receive' from voice_demo.o(i.voice_ProcessEvent).
    Adding TT veneer (12 bytes, Long) for call to 'osal_msg_deallocate' from voice_demo.o(i.voice_ProcessEvent).
    Adding TT veneer (12 bytes, Long) for call to 'osal_set_event' from voice_demo.o(i.voice_evt_handler_adpcm).
    Adding TT veneer (12 bytes, Long) for call to 'osalTimeUpdate' from patch.o(i.wakeupProcess1).
    Adding TT veneer (12 bytes, Long) for call to 'set_timer' from patch.o(i.wakeupProcess1).
    Adding TT veneer (12 bytes, Long) for call to 'app_wakeup_process' from patch.o(i.wakeupProcess1).
    Adding TT veneer (12 bytes, Long) for call to 'll_hw_set_empty_head' from patch.o(i.wakeup_init1).
    Adding TT veneer (12 bytes, Long) for call to 'll_hw_set_timing' from patch.o(i.wakeup_init1).
    Adding TT veneer (12 bytes, Long) for call to 'll_hw_ign_rfifo' from patch.o(i.wakeup_init1).

127 Veneer(s) (total 1524 bytes) added to the image.

==============================================================================

Image Symbol Table

    Local Symbols

    Symbol Name                              Value     Ov Type        Size  Object(Section)

    ../clib/../cmprslib/zerorunl.c           0x00000000   Number         0  __dczerorl.o ABSOLUTE
    ../clib/microlib/init/entry.s            0x00000000   Number         0  entry8a.o ABSOLUTE
    ../clib/microlib/init/entry.s            0x00000000   Number         0  entry7b.o ABSOLUTE
    ../clib/microlib/init/entry.s            0x00000000   Number         0  entry7a.o ABSOLUTE
    ../clib/microlib/init/entry.s            0x00000000   Number         0  entry5.o ABSOLUTE
    ../clib/microlib/init/entry.s            0x00000000   Number         0  entry2.o ABSOLUTE
    ../clib/microlib/init/entry.s            0x00000000   Number         0  entry9a.o ABSOLUTE
    ../clib/microlib/init/entry.s            0x00000000   Number         0  entry9b.o ABSOLUTE
    ../clib/microlib/init/entry.s            0x00000000   Number         0  entry10a.o ABSOLUTE
    ../clib/microlib/init/entry.s            0x00000000   Number         0  entry10b.o ABSOLUTE
    ../clib/microlib/init/entry.s            0x00000000   Number         0  entry11a.o ABSOLUTE
    ../clib/microlib/init/entry.s            0x00000000   Number         0  entry.o ABSOLUTE
    ../clib/microlib/init/entry.s            0x00000000   Number         0  entry11b.o ABSOLUTE
    ../clib/microlib/init/entry.s            0x00000000   Number         0  entry8b.o ABSOLUTE
    ../clib/microlib/longlong.c              0x00000000   Number         0  llushr.o ABSOLUTE
    ../clib/microlib/longlong.c              0x00000000   Number         0  llshl.o ABSOLUTE
    ../clib/microlib/malloc/malloc.c         0x00000000   Number         0  mallocr.o ABSOLUTE
    ../clib/microlib/malloc/malloc.c         0x00000000   Number         0  malloca.o ABSOLUTE
    ../clib/microlib/malloc/malloc.c         0x00000000   Number         0  malloc.o ABSOLUTE
    ../clib/microlib/malloc/malloc.c         0x00000000   Number         0  mallocra.o ABSOLUTE
    ../clib/microlib/malloc/mvars.c          0x00000000   Number         0  mvars.o ABSOLUTE
    ../clib/microlib/stubs.s                 0x00000000   Number         0  iusefp.o ABSOLUTE
    ../fplib/microlib/d2f.c                  0x00000000   Number         0  d2f.o ABSOLUTE
    ../fplib/microlib/f2d.c                  0x00000000   Number         0  f2d.o ABSOLUTE
    ../fplib/microlib/fpadd.c                0x00000000   Number         0  fadd.o ABSOLUTE
    ../fplib/microlib/fpdiv.c                0x00000000   Number         0  fdiv.o ABSOLUTE
    ../fplib/microlib/fpdiv.c                0x00000000   Number         0  ddiv.o ABSOLUTE
    ../fplib/microlib/fpepilogue.c           0x00000000   Number         0  depilogue.o ABSOLUTE
    ../fplib/microlib/fpepilogue.c           0x00000000   Number         0  fepilogue.o ABSOLUTE
    ../fplib/microlib/fpflt.c                0x00000000   Number         0  dflti.o ABSOLUTE
    ../fplib/microlib/fpflt.c                0x00000000   Number         0  ffltui.o ABSOLUTE
    ../fplib/microlib/fpflt.c                0x00000000   Number         0  fflti.o ABSOLUTE
    ../fplib/microlib/fpmul.c                0x00000000   Number         0  dmul.o ABSOLUTE
    ../fplib/microlib/fpmul.c                0x00000000   Number         0  fmul.o ABSOLUTE
    ../fplib/microlib/fpscalb.c              0x00000000   Number         0  fscalb.o ABSOLUTE
    ../fplib/microlib/fpscalb.c              0x00000000   Number         0  dscalb.o ABSOLUTE
    ..\..\..\components\driver\adc\adc.c     0x00000000   Number         0  adc.o ABSOLUTE
    ..\..\..\components\driver\clock\clock.c 0x00000000   Number         0  clock.o ABSOLUTE
    ..\..\..\components\driver\flash\flash.c 0x00000000   Number         0  flash.o ABSOLUTE
    ..\..\..\components\driver\gpio\gpio.c   0x00000000   Number         0  gpio.o ABSOLUTE
    ..\..\..\components\driver\log\my_printf.c 0x00000000   Number         0  my_printf.o ABSOLUTE
    ..\..\..\components\driver\pwrmgr\pwrmgr.c 0x00000000   Number         0  pwrmgr.o ABSOLUTE
    ..\..\..\components\driver\uart\uart.c   0x00000000   Number         0  uart.o ABSOLUTE
    ..\..\..\components\driver\voice\voice.c 0x00000000   Number         0  voice.o ABSOLUTE
    ..\..\..\misc\jump_table.c               0x00000000   Number         0  jump_table.o ABSOLUTE
    ..\..\components\ble_src\controller\rf_phy_driver.c 0x00000000   Number         0  rf_phy_driver.o ABSOLUTE
    ..\\..\\..\\components\\driver\\adc\\adc.c 0x00000000   Number         0  adc.o ABSOLUTE
    ..\\..\\..\\components\\driver\\clock\\clock.c 0x00000000   Number         0  clock.o ABSOLUTE
    ..\\..\\..\\components\\driver\\flash\\flash.c 0x00000000   Number         0  flash.o ABSOLUTE
    ..\\..\\..\\components\\driver\\gpio\\gpio.c 0x00000000   Number         0  gpio.o ABSOLUTE
    ..\\..\\..\\components\\driver\\log\\my_printf.c 0x00000000   Number         0  my_printf.o ABSOLUTE
    ..\\..\\..\\components\\driver\\pwrmgr\\pwrmgr.c 0x00000000   Number         0  pwrmgr.o ABSOLUTE
    ..\\..\\..\\components\\driver\\uart\\uart.c 0x00000000   Number         0  uart.o ABSOLUTE
    ..\\..\\..\\components\\driver\\voice\\voice.c 0x00000000   Number         0  voice.o ABSOLUTE
    ..\\..\\..\\misc\\jump_table.c           0x00000000   Number         0  jump_table.o ABSOLUTE
    ..\\..\\components\\ble_src\\controller\\rf_phy_driver.c 0x00000000   Number         0  rf_phy_driver.o ABSOLUTE
    RTE\Device\ARMCM0\startup_ARMCM0.s       0x00000000   Number         0  startup_armcm0.o ABSOLUTE
    RTE\Device\ARMCM0\system_ARMCM0.c        0x00000000   Number         0  system_armcm0.o ABSOLUTE
    RTE\\Device\\ARMCM0\\system_ARMCM0.c     0x00000000   Number         0  system_armcm0.o ABSOLUTE
    dc.s                                     0x00000000   Number         0  dc.o ABSOLUTE
    handlers.s                               0x00000000   Number         0  handlers.o ABSOLUTE
    init.s                                   0x00000000   Number         0  init.o ABSOLUTE
    source\OSAL_adc.c                        0x00000000   Number         0  osal_adc.o ABSOLUTE
    source\Voice_Queue.c                     0x00000000   Number         0  voice_queue.o ABSOLUTE
    source\\OSAL_adc.c                       0x00000000   Number         0  osal_adc.o ABSOLUTE
    source\\Voice_Queue.c                    0x00000000   Number         0  voice_queue.o ABSOLUTE
    source\\adc_Main.c                       0x00000000   Number         0  adc_main.o ABSOLUTE
    source\\adc_compare_demo.c               0x00000000   Number         0  adc_compare_demo.o ABSOLUTE
    source\\adc_demo.c                       0x00000000   Number         0  adc_demo.o ABSOLUTE
    source\\adc_poilling_demo.c              0x00000000   Number         0  adc_poilling_demo.o ABSOLUTE
    source\\aes.c                            0x00000000   Number         0  aes.o ABSOLUTE
    source\\main.c                           0x00000000   Number         0  main.o ABSOLUTE
    source\\patch.c                          0x00000000   Number         0  patch.o ABSOLUTE
    source\\phy_sec_ext.c                    0x00000000   Number         0  phy_sec_ext.o ABSOLUTE
    source\\voice_circ_buff.c                0x00000000   Number         0  voice_circ_buff.o ABSOLUTE
    source\\voice_demo.c                     0x00000000   Number         0  voice_demo.o ABSOLUTE
    source\adc_Main.c                        0x00000000   Number         0  adc_main.o ABSOLUTE
    source\adc_compare_demo.c                0x00000000   Number         0  adc_compare_demo.o ABSOLUTE
    source\adc_demo.c                        0x00000000   Number         0  adc_demo.o ABSOLUTE
    source\adc_poilling_demo.c               0x00000000   Number         0  adc_poilling_demo.o ABSOLUTE
    source\aes.c                             0x00000000   Number         0  aes.o ABSOLUTE
    source\lib_efuse3.c                      0x00000000   Number         0  lib_efuse3.o ABSOLUTE
    source\main.c                            0x00000000   Number         0  main.o ABSOLUTE
    source\patch.c                           0x00000000   Number         0  patch.o ABSOLUTE
    source\phy_sec_ext.c                     0x00000000   Number         0  phy_sec_ext.o ABSOLUTE
    source\voice_circ_buff.c                 0x00000000   Number         0  voice_circ_buff.o ABSOLUTE
    source\voice_demo.c                      0x00000000   Number         0  voice_demo.o ABSOLUTE
    _section_xip_code_                       0x110200cc   Section        0  patch.o(_section_xip_code_)
    i.__NVIC_DisableIRQ                      0x110203d0   Section        0  adc.o(i.__NVIC_DisableIRQ)
    __NVIC_DisableIRQ                        0x110203d1   Thumb Code    26  adc.o(i.__NVIC_DisableIRQ)
    i.__NVIC_SetPriority                     0x110203f0   Section        0  adc.o(i.__NVIC_SetPriority)
    __NVIC_SetPriority                       0x110203f1   Thumb Code    60  adc.o(i.__NVIC_SetPriority)
    i.__NVIC_SetPriority                     0x11020434   Section        0  voice.o(i.__NVIC_SetPriority)
    __NVIC_SetPriority                       0x11020435   Thumb Code    60  voice.o(i.__NVIC_SetPriority)
    i.adc_compare_cb                         0x11020478   Section        0  adc.o(i.adc_compare_cb)
    adc_compare_cb                           0x11020479   Thumb Code   238  adc.o(i.adc_compare_cb)
    i.adc_wakeup_hdl                         0x110205c4   Section        0  adc.o(i.adc_wakeup_hdl)
    adc_wakeup_hdl                           0x110205c5   Thumb Code    12  adc.o(i.adc_wakeup_hdl)
    i.clear_adcc_cfg                         0x110205d0   Section        0  adc.o(i.clear_adcc_cfg)
    i.disable_analog_pin                     0x110205e8   Section        0  adc.o(i.disable_analog_pin)
    disable_analog_pin                       0x110205e9   Thumb Code    36  adc.o(i.disable_analog_pin)
    i.hal_ADC_IRQHandler                     0x11020610   Section        0  adc.o(i.hal_ADC_IRQHandler)
    __tagsym$$used                           0x11020611   Number         0  adc.o(i.hal_ADC_IRQHandler)
    i.hal_ADC_VOICE_IRQHandler               0x110206d4   Section        0  voice.o(i.hal_ADC_VOICE_IRQHandler)
    __tagsym$$used                           0x110206d5   Number         0  voice.o(i.hal_ADC_VOICE_IRQHandler)
    i.hal_ADC_compare_IRQHandler             0x11020788   Section        0  adc.o(i.hal_ADC_compare_IRQHandler)
    hal_ADC_compare_IRQHandler               0x11020789   Thumb Code   284  adc.o(i.hal_ADC_compare_IRQHandler)
    __tagsym$$used                           0x11020789   Number         0  adc.o(i.hal_ADC_compare_IRQHandler)
    i.hal_GPIO_IRQHandler                    0x110208b8   Section        0  gpio.o(i.hal_GPIO_IRQHandler)
    __tagsym$$used                           0x110208b9   Number         0  gpio.o(i.hal_GPIO_IRQHandler)
    i.hal_adc_init                           0x110208d0   Section        0  adc.o(i.hal_adc_init)
    i.hal_adc_stop                           0x110208f0   Section        0  adc.o(i.hal_adc_stop)
    i.hal_gpio_cfg_analog_io                 0x1102099c   Section        0  gpio.o(i.hal_gpio_cfg_analog_io)
    i.hal_gpio_fmux                          0x110209d4   Section        0  gpio.o(i.hal_gpio_fmux)
    i.hal_gpio_fmux_set                      0x110209f4   Section        0  gpio.o(i.hal_gpio_fmux_set)
    i.hal_gpio_init                          0x11020a38   Section        0  gpio.o(i.hal_gpio_init)
    i.hal_gpio_interrupt_enable              0x11020a90   Section        0  gpio.o(i.hal_gpio_interrupt_enable)
    hal_gpio_interrupt_enable                0x11020a91   Thumb Code    58  gpio.o(i.hal_gpio_interrupt_enable)
    i.hal_gpio_pin2pin3_control              0x11020ad0   Section        0  gpio.o(i.hal_gpio_pin2pin3_control)
    i.hal_gpio_pin_init                      0x11020aec   Section        0  gpio.o(i.hal_gpio_pin_init)
    i.hal_gpio_pull_set                      0x11020b60   Section        0  gpio.o(i.hal_gpio_pull_set)
    i.hal_gpio_read                          0x11020bb4   Section        0  gpio.o(i.hal_gpio_read)
    i.hal_gpioin_disable                     0x11020be0   Section        0  gpio.o(i.hal_gpioin_disable)
    i.hal_gpioin_enable                      0x11020c28   Section        0  gpio.o(i.hal_gpioin_enable)
    i.hal_gpioin_event                       0x11020c94   Section        0  gpio.o(i.hal_gpioin_event)
    hal_gpioin_event                         0x11020c95   Thumb Code   130  gpio.o(i.hal_gpioin_event)
    i.hal_gpioin_register                    0x11020d1c   Section        0  gpio.o(i.hal_gpioin_register)
    i.hal_poilling_adc_stop                  0x11020d5c   Section        0  adc.o(i.hal_poilling_adc_stop)
    i.hal_voice_amic_gain                    0x11020de8   Section        0  voice.o(i.hal_voice_amic_gain)
    i.hal_voice_amic_mode                    0x11020e00   Section        0  voice.o(i.hal_voice_amic_mode)
    i.hal_voice_amute_off                    0x11020e38   Section        0  voice.o(i.hal_voice_amute_off)
    i.hal_voice_amute_on                     0x11020e48   Section        0  voice.o(i.hal_voice_amute_on)
    i.hal_voice_config                       0x11020e58   Section        0  voice.o(i.hal_voice_config)
    i.hal_voice_deinit                       0x11020f70   Section        0  voice.o(i.hal_voice_deinit)
    i.hal_voice_disable                      0x11020f84   Section        0  voice.o(i.hal_voice_disable)
    i.hal_voice_dmic_mode                    0x11020fa4   Section        0  voice.o(i.hal_voice_dmic_mode)
    i.hal_voice_dmic_open                    0x11020fb4   Section        0  voice.o(i.hal_voice_dmic_open)
    i.hal_voice_enable                       0x11020fc8   Section        0  voice.o(i.hal_voice_enable)
    i.hal_voice_encode                       0x11020fe0   Section        0  voice.o(i.hal_voice_encode)
    i.hal_voice_gain                         0x11020ff8   Section        0  voice.o(i.hal_voice_gain)
    i.hal_voice_init                         0x11021010   Section        0  voice.o(i.hal_voice_init)
    i.hal_voice_rate                         0x11021034   Section        0  voice.o(i.hal_voice_rate)
    i.hal_voice_start                        0x1102104c   Section        0  voice.o(i.hal_voice_start)
    i.hal_voice_stop                         0x110210d0   Section        0  voice.o(i.hal_voice_stop)
    i.set_voice_amute_cfg                    0x11021124   Section        0  voice.o(i.set_voice_amute_cfg)
    set_voice_amute_cfg                      0x11021125   Thumb Code   138  voice.o(i.set_voice_amute_cfg)
    i.voice_wakeup_hdl                       0x110211b8   Section        0  voice.o(i.voice_wakeup_hdl)
    voice_wakeup_hdl                         0x110211b9   Thumb Code    12  voice.o(i.voice_wakeup_hdl)
    .constdata                               0x110211c4   Section       92  gpio.o(.constdata)
    .conststring                             0x11021220   Section      133  adc.o(.conststring)
    jump_table_mem_area                      0x1fff0000   Section     1024  jump_table.o(jump_table_mem_area)
    global_config_area                       0x1fff0400   Section     1024  jump_table.o(global_config_area)
    RESET                                    0x1fff1838   Section      192  startup_armcm0.o(RESET)
    .ARM.Collect$$$$00000000                 0x1fff18f8   Section        0  entry.o(.ARM.Collect$$$$00000000)
    .ARM.Collect$$$$00000001                 0x1fff18f8   Section        4  entry2.o(.ARM.Collect$$$$00000001)
    .ARM.Collect$$$$00000004                 0x1fff18fc   Section        4  entry5.o(.ARM.Collect$$$$00000004)
    .ARM.Collect$$$$00000008                 0x1fff1900   Section        0  entry7b.o(.ARM.Collect$$$$00000008)
    .ARM.Collect$$$$0000000A                 0x1fff1900   Section        0  entry8b.o(.ARM.Collect$$$$0000000A)
    .ARM.Collect$$$$0000000B                 0x1fff1900   Section        8  entry9a.o(.ARM.Collect$$$$0000000B)
    .ARM.Collect$$$$0000000D                 0x1fff1908   Section        0  entry10a.o(.ARM.Collect$$$$0000000D)
    .ARM.Collect$$$$0000000F                 0x1fff1908   Section        0  entry11a.o(.ARM.Collect$$$$0000000F)
    .ARM.Collect$$$$00002712                 0x1fff1908   Section        4  entry2.o(.ARM.Collect$$$$00002712)
    __lit__00000000                          0x1fff1908   Data           4  entry2.o(.ARM.Collect$$$$00002712)
    .emb_text                                0x1fff190c   Section       56  jump_table.o(.emb_text)
    .text                                    0x1fff1944   Section       28  startup_armcm0.o(.text)
    .text                                    0x1fff1960   Section       36  init.o(.text)
    .text                                    0x1fff1984   Section        0  __dczerorl.o(.text)
    _func_xip_code_.LL_Disconnect1           0x1fff1ee8   Section        0  patch.o(_func_xip_code_.LL_Disconnect1)
    _func_xip_code_.LL_InitConnectContext    0x1fff1f04   Section        0  patch.o(_func_xip_code_.LL_InitConnectContext)
    _func_xip_code_.LL_SetDataLengh1         0x1fff2020   Section        0  patch.o(_func_xip_code_.LL_SetDataLengh1)
    _func_xip_code_.LL_TxData1               0x1fff2050   Section        0  patch.o(_func_xip_code_.LL_TxData1)
    _section_sram_code_                      0x1fff20f4   Section        0  uart.o(_section_sram_code_)
    irq_rx_handler                           0x1fff20f5   Thumb Code    76  uart.o(_section_sram_code_)
    irq_tx_empty_handler                     0x1fff2141   Thumb Code   136  uart.o(_section_sram_code_)
    _section_sram_code_                      0x1fff21d8   Section        0  pwrmgr.o(_section_sram_code_)
    i.FillBuffer                             0x1fff220c   Section        0  voice_circ_buff.o(i.FillBuffer)
    i.GetBufferSize                          0x1fff225c   Section        0  voice_circ_buff.o(i.GetBufferSize)
    i.InitCircularBuffer                     0x1fff2274   Section        0  voice_circ_buff.o(i.InitCircularBuffer)
    i.InitQueue                              0x1fff2298   Section        0  voice_queue.o(i.InitQueue)
    i.IsBufferSizeFilled                     0x1fff22c0   Section        0  voice_circ_buff.o(i.IsBufferSizeFilled)
    i.IsBufferVacant                         0x1fff22d4   Section        0  voice_circ_buff.o(i.IsBufferVacant)
    i.LL_ENC_AES128_Encrypt1                 0x1fff22e8   Section        0  patch.o(i.LL_ENC_AES128_Encrypt1)
    i.LL_ENC_Decrypt1                        0x1fff2304   Section        0  patch.o(i.LL_ENC_Decrypt1)
    i.LL_ENC_Encrypt1                        0x1fff247c   Section        0  patch.o(i.LL_ENC_Encrypt1)
    i.LL_IRQHandler1                         0x1fff25dc   Section        0  patch.o(i.LL_IRQHandler1)
    i.LL_ProcessEvent1                       0x1fff2798   Section        0  patch.o(i.LL_ProcessEvent1)
    i.LL_Reset1                              0x1fff27ec   Section        0  patch.o(i.LL_Reset1)
    i.LL_set_default_conn_params1            0x1fff2804   Section        0  patch.o(i.LL_set_default_conn_params1)
    i.NVIC_EnableIRQ                         0x1fff284c   Section        0  patch.o(i.NVIC_EnableIRQ)
    NVIC_EnableIRQ                           0x1fff284d   Thumb Code    14  patch.o(i.NVIC_EnableIRQ)
    i.ReadBuffer                             0x1fff2860   Section        0  voice_circ_buff.o(i.ReadBuffer)
    i.SystemInit                             0x1fff289c   Section        0  system_armcm0.o(i.SystemInit)
    i.UpdateReadPtr                          0x1fff28ac   Section        0  voice_circ_buff.o(i.UpdateReadPtr)
    i.UpdateWritePtr                         0x1fff28ca   Section        0  voice_circ_buff.o(i.UpdateWritePtr)
    i.__NVIC_SetPriority                     0x1fff28e8   Section        0  main.o(i.__NVIC_SetPriority)
    __NVIC_SetPriority                       0x1fff28e9   Thumb Code    60  main.o(i.__NVIC_SetPriority)
    i.__scatterload_copy                     0x1fff292c   Section       14  handlers.o(i.__scatterload_copy)
    i.__scatterload_null                     0x1fff293a   Section        2  handlers.o(i.__scatterload_null)
    i.__scatterload_zeroinit                 0x1fff293c   Section       14  handlers.o(i.__scatterload_zeroinit)
    i.__wdt_init                             0x1fff294c   Section        0  patch.o(i.__wdt_init)
    i._clk_apply_setting1                    0x1fff295c   Section        0  patch.o(i._clk_apply_setting1)
    _clk_apply_setting1                      0x1fff295d   Thumb Code   250  patch.o(i._clk_apply_setting1)
    i._efuse_chip_version_check              0x1fff2a68   Section        0  phy_sec_ext.o(i._efuse_chip_version_check)
    i._hard_fault                            0x1fff2a88   Section        0  jump_table.o(i._hard_fault)
    i._rom_efuse_version_init                0x1fff2cc4   Section        0  phy_sec_ext.o(i._rom_efuse_version_init)
    i._rom_sec_boot_init                     0x1fff2ce4   Section        0  phy_sec_ext.o(i._rom_sec_boot_init)
    i._uart_putc                             0x1fff2d00   Section        0  my_printf.o(i._uart_putc)
    i.aon_register_init                      0x1fff2d10   Section        0  clock.o(i.aon_register_init)
    aon_register_init                        0x1fff2d11   Thumb Code    56  clock.o(i.aon_register_init)
    i.app_main                               0x1fff2d58   Section        0  adc_main.o(i.app_main)
    i.check_16MXtal_by_rcTracking            0x1fff2d6c   Section        0  patch.o(i.check_16MXtal_by_rcTracking)
    check_16MXtal_by_rcTracking              0x1fff2d6d   Thumb Code   316  patch.o(i.check_16MXtal_by_rcTracking)
    i.check_96MXtal_by_rcTracking            0x1fff2ec0   Section        0  patch.o(i.check_96MXtal_by_rcTracking)
    check_96MXtal_by_rcTracking              0x1fff2ec1   Thumb Code   246  patch.o(i.check_96MXtal_by_rcTracking)
    i.clk_init                               0x1fff2fd0   Section        0  patch.o(i.clk_init)
    i.config_RTC1                            0x1fff3050   Section        0  patch.o(i.config_RTC1)
    i.cusum_advance_slave_rx_window          0x1fff3104   Section        0  patch.o(i.cusum_advance_slave_rx_window)
    cusum_advance_slave_rx_window            0x1fff3105   Thumb Code   124  patch.o(i.cusum_advance_slave_rx_window)
    i.dbg_printf                             0x1fff3190   Section        0  my_printf.o(i.dbg_printf)
    i.dbg_printf_init                        0x1fff31ac   Section        0  my_printf.o(i.dbg_printf_init)
    i.efuse_init                             0x1fff31c0   Section        0  phy_sec_ext.o(i.efuse_init)
    i.enlarge_rx_timeout_1st                 0x1fff31d8   Section        0  patch.o(i.enlarge_rx_timeout_1st)
    enlarge_rx_timeout_1st                   0x1fff31d9   Thumb Code   158  patch.o(i.enlarge_rx_timeout_1st)
    i.enterSleepProcess1                     0x1fff3290   Section        0  patch.o(i.enterSleepProcess1)
    i.finidv                                 0x1fff32d4   Section        0  phy_sec_ext.o(i.finidv)
    i.global_config_hclk_related             0x1fff3360   Section        0  patch.o(i.global_config_hclk_related)
    i.hal_UART0_IRQHandler                   0x1fff33f4   Section        0  uart.o(i.hal_UART0_IRQHandler)
    __tagsym$$used                           0x1fff33f5   Number         0  uart.o(i.hal_UART0_IRQHandler)
    i.hal_UART1_IRQHandler                   0x1fff3438   Section        0  uart.o(i.hal_UART1_IRQHandler)
    __tagsym$$used                           0x1fff3439   Number         0  uart.o(i.hal_UART1_IRQHandler)
    i.hal_cache_tag_flush                    0x1fff347c   Section        0  flash.o(i.hal_cache_tag_flush)
    i.hal_clk_gate_disable                   0x1fff34c4   Section        0  clock.o(i.hal_clk_gate_disable)
    i.hal_clk_gate_enable                    0x1fff34f8   Section        0  clock.o(i.hal_clk_gate_enable)
    i.hal_clk_reset                          0x1fff352c   Section        0  clock.o(i.hal_clk_reset)
    i.hal_low_power_io_init                  0x1fff35a8   Section        0  main.o(i.hal_low_power_io_init)
    hal_low_power_io_init                    0x1fff35a9   Thumb Code    98  main.o(i.hal_low_power_io_init)
    i.hal_pwrmgr_LowCurrentLdo_enable        0x1fff3614   Section        0  pwrmgr.o(i.hal_pwrmgr_LowCurrentLdo_enable)
    i.hal_pwrmgr_RAM_retention               0x1fff3628   Section        0  pwrmgr.o(i.hal_pwrmgr_RAM_retention)
    i.hal_pwrmgr_RAM_retention_clr           0x1fff364c   Section        0  pwrmgr.o(i.hal_pwrmgr_RAM_retention_clr)
    i.hal_pwrmgr_RAM_retention_set           0x1fff3660   Section        0  pwrmgr.o(i.hal_pwrmgr_RAM_retention_set)
    i.hal_pwrmgr_init                        0x1fff3684   Section        0  pwrmgr.o(i.hal_pwrmgr_init)
    i.hal_pwrmgr_lock                        0x1fff36b4   Section        0  pwrmgr.o(i.hal_pwrmgr_lock)
    i.hal_pwrmgr_register                    0x1fff370c   Section        0  pwrmgr.o(i.hal_pwrmgr_register)
    i.hal_pwrmgr_sleep_process               0x1fff3760   Section        0  pwrmgr.o(i.hal_pwrmgr_sleep_process)
    __tagsym$$used                           0x1fff3761   Number         0  pwrmgr.o(i.hal_pwrmgr_sleep_process)
    i.hal_pwrmgr_unlock                      0x1fff3764   Section        0  pwrmgr.o(i.hal_pwrmgr_unlock)
    i.hal_pwrmgr_unregister                  0x1fff37cc   Section        0  pwrmgr.o(i.hal_pwrmgr_unregister)
    i.hal_pwrmgr_wakeup_process              0x1fff3828   Section        0  pwrmgr.o(i.hal_pwrmgr_wakeup_process)
    __tagsym$$used                           0x1fff3829   Number         0  pwrmgr.o(i.hal_pwrmgr_wakeup_process)
    i.hal_rc32k_clk_tracking_init            0x1fff382c   Section        0  clock.o(i.hal_rc32k_clk_tracking_init)
    i.hal_rfphy_init                         0x1fff3854   Section        0  main.o(i.hal_rfphy_init)
    hal_rfphy_init                           0x1fff3855   Thumb Code   108  main.o(i.hal_rfphy_init)
    i.hal_rom_boot_init                      0x1fff38dc   Section        0  patch.o(i.hal_rom_boot_init)
    i.hal_rtc_clock_config                   0x1fff38e4   Section        0  clock.o(i.hal_rtc_clock_config)
    i.hal_spif_cache_init                    0x1fff3968   Section        0  flash.o(i.hal_spif_cache_init)
    i.hal_system_clock_change_process        0x1fff3988   Section        0  patch.o(i.hal_system_clock_change_process)
    i.hal_uart_init                          0x1fff3998   Section        0  uart.o(i.hal_uart_init)
    i.hal_uart_send_buff                     0x1fff39fc   Section        0  uart.o(i.hal_uart_send_buff)
    i.hw_spif_cache_config                   0x1fff3a1c   Section        0  flash.o(i.hw_spif_cache_config)
    hw_spif_cache_config                     0x1fff3a1d   Thumb Code   140  flash.o(i.hw_spif_cache_config)
    i.isTimer5Running                        0x1fff3ac4   Section        0  patch.o(i.isTimer5Running)
    i.l2capPocessFragmentTxData              0x1fff3ad4   Section        0  patch.o(i.l2capPocessFragmentTxData)
    i.lib_efuse_load                         0x1fff3ad8   Section        0  lib_efuse3.o(i.lib_efuse_load)
    i.llProcessTxData1                       0x1fff3b90   Section        0  patch.o(i.llProcessTxData1)
    i.llReleaseConnId1                       0x1fff3be4   Section        0  patch.o(i.llReleaseConnId1)
    i.llSlaveEvt_TaskEndOk1                  0x1fff3ca4   Section        0  patch.o(i.llSlaveEvt_TaskEndOk1)
    i.llWriteTxData1                         0x1fff3cdc   Section        0  patch.o(i.llWriteTxData1)
    i.ll_flow_ctrl_restore                   0x1fff3d84   Section        0  patch.o(i.ll_flow_ctrl_restore)
    ll_flow_ctrl_restore                     0x1fff3d85   Thumb Code    82  patch.o(i.ll_flow_ctrl_restore)
    i.ll_generateTxBuffer1                   0x1fff3de0   Section        0  patch.o(i.ll_generateTxBuffer1)
    i.ll_hw_go1                              0x1fff405c   Section        0  patch.o(i.ll_hw_go1)
    i.ll_hw_read_tfifo_rtlp1                 0x1fff4338   Section        0  patch.o(i.ll_hw_read_tfifo_rtlp1)
    i.ll_osal_mem_alloc                      0x1fff4414   Section        0  patch.o(i.ll_osal_mem_alloc)
    i.ll_osal_mem_free                       0x1fff44a8   Section        0  patch.o(i.ll_osal_mem_free)
    i.ll_processBasicIRQ_SRX                 0x1fff44f8   Section        0  patch.o(i.ll_processBasicIRQ_SRX)
    i.ll_processBasicIRQ_ScanTRX             0x1fff4510   Section        0  patch.o(i.ll_processBasicIRQ_ScanTRX)
    i.ll_processBasicIRQ_secScanTRX          0x1fff4528   Section        0  patch.o(i.ll_processBasicIRQ_secScanTRX)
    i.ll_processBasicIRQ_secondaryAdvSTX     0x1fff4540   Section        0  patch.o(i.ll_processBasicIRQ_secondaryAdvSTX)
    i.ll_processBasicIRQ_secondaryAdvTRX     0x1fff4558   Section        0  patch.o(i.ll_processBasicIRQ_secondaryAdvTRX)
    i.ll_processBasicIRQ_secondaryInitSRX    0x1fff4570   Section        0  patch.o(i.ll_processBasicIRQ_secondaryInitSRX)
    i.ll_processBasicIRQ_secondaryScanSRX    0x1fff4588   Section        0  patch.o(i.ll_processBasicIRQ_secondaryScanSRX)
    i.ll_read_rxfifo1                        0x1fff45a0   Section        0  patch.o(i.ll_read_rxfifo1)
    i.llbuf_alloc_time_statics               0x1fff45dc   Section        0  patch.o(i.llbuf_alloc_time_statics)
    i.log_vsprintf                           0x1fff4624   Section        0  my_printf.o(i.log_vsprintf)
    log_vsprintf                             0x1fff4625   Thumb Code   608  my_printf.o(i.log_vsprintf)
    i.main                                   0x1fff488c   Section        0  main.o(i.main)
    i.number                                 0x1fff49b0   Section        0  my_printf.o(i.number)
    number                                   0x1fff49b1   Thumb Code   356  my_printf.o(i.number)
    i.osalInitTasks                          0x1fff4b18   Section        0  osal_adc.o(i.osalInitTasks)
    i.osal_idle_task0                        0x1fff4b44   Section        0  patch.o(i.osal_idle_task0)
    i.osal_search_active_task                0x1fff4b5c   Section        0  patch.o(i.osal_search_active_task)
    i.patch_linkBuf_init                     0x1fff4b94   Section        0  patch.o(i.patch_linkBuf_init)
    i.pin_voice_stop_event                   0x1fff4c2c   Section        0  voice_demo.o(i.pin_voice_stop_event)
    pin_voice_stop_event                     0x1fff4c2d   Thumb Code     8  voice_demo.o(i.pin_voice_stop_event)
    i.rc32k_calibration                      0x1fff4c34   Section        0  rf_phy_driver.o(i.rc32k_calibration)
    i.rc32k_cap_cal                          0x1fff4cb4   Section        0  patch.o(i.rc32k_cap_cal)
    i.read_TIM5_remainder_timer              0x1fff4d0c   Section        0  patch.o(i.read_TIM5_remainder_timer)
    read_TIM5_remainder_timer                0x1fff4d0d   Thumb Code     8  patch.o(i.read_TIM5_remainder_timer)
    i.rf_calibrate1                          0x1fff4d18   Section        0  rf_phy_driver.o(i.rf_calibrate1)
    i.rf_phy_ana_cfg                         0x1fff4d24   Section        0  rf_phy_driver.o(i.rf_phy_ana_cfg)
    i.rf_phy_bb_cfg                          0x1fff4e40   Section        0  rf_phy_driver.o(i.rf_phy_bb_cfg)
    i.rf_phy_change_cfg0                     0x1fff4fec   Section        0  rf_phy_driver.o(i.rf_phy_change_cfg0)
    i.rf_phy_ini                             0x1fff5094   Section        0  rf_phy_driver.o(i.rf_phy_ini)
    i.rf_phy_set_txPower                     0x1fff50d0   Section        0  rf_phy_driver.o(i.rf_phy_set_txPower)
    i.rf_tpCal_gen_cap_arrary                0x1fff5144   Section        0  rf_phy_driver.o(i.rf_tpCal_gen_cap_arrary)
    i.rf_tp_cal                              0x1fff5190   Section        0  rf_phy_driver.o(i.rf_tp_cal)
    i.skip_atoi                              0x1fff52ac   Section        0  my_printf.o(i.skip_atoi)
    skip_atoi                                0x1fff52ad   Thumb Code    32  my_printf.o(i.skip_atoi)
    i.stop_voice_task                        0x1fff52cc   Section        0  voice_demo.o(i.stop_voice_task)
    stop_voice_task                          0x1fff52cd   Thumb Code    66  voice_demo.o(i.stop_voice_task)
    i.txmit_buf_polling                      0x1fff5320   Section        0  uart.o(i.txmit_buf_polling)
    txmit_buf_polling                        0x1fff5321   Thumb Code    96  uart.o(i.txmit_buf_polling)
    i.txmit_buf_use_tx_buf                   0x1fff538c   Section        0  uart.o(i.txmit_buf_use_tx_buf)
    txmit_buf_use_tx_buf                     0x1fff538d   Thumb Code   176  uart.o(i.txmit_buf_use_tx_buf)
    i.uart_hw_deinit                         0x1fff5448   Section        0  uart.o(i.uart_hw_deinit)
    uart_hw_deinit                           0x1fff5449   Thumb Code   106  uart.o(i.uart_hw_deinit)
    i.uart_hw_init                           0x1fff54c8   Section        0  uart.o(i.uart_hw_init)
    uart_hw_init                             0x1fff54c9   Thumb Code   384  uart.o(i.uart_hw_init)
    i.uart_wakeup_process_0                  0x1fff5670   Section        0  uart.o(i.uart_wakeup_process_0)
    uart_wakeup_process_0                    0x1fff5671   Thumb Code    10  uart.o(i.uart_wakeup_process_0)
    i.uart_wakeup_process_1                  0x1fff567a   Section        0  uart.o(i.uart_wakeup_process_1)
    uart_wakeup_process_1                    0x1fff567b   Thumb Code    10  uart.o(i.uart_wakeup_process_1)
    i.voiceCaptureInit                       0x1fff5684   Section        0  voice_demo.o(i.voiceCaptureInit)
    voiceCaptureInit                         0x1fff5685   Thumb Code    76  voice_demo.o(i.voiceCaptureInit)
    i.voiceCaptureStart                      0x1fff56f4   Section        0  voice_demo.o(i.voiceCaptureStart)
    voiceCaptureStart                        0x1fff56f5   Thumb Code    50  voice_demo.o(i.voiceCaptureStart)
    i.voice_Init                             0x1fff5738   Section        0  voice_demo.o(i.voice_Init)
    i.voice_ProcessEvent                     0x1fff5770   Section        0  voice_demo.o(i.voice_ProcessEvent)
    i.voice_data_encode_inqueue              0x1fff57c8   Section        0  voice_demo.o(i.voice_data_encode_inqueue)
    i.voice_evt_handler_adpcm                0x1fff57f0   Section        0  voice_demo.o(i.voice_evt_handler_adpcm)
    voice_evt_handler_adpcm                  0x1fff57f1   Thumb Code    72  voice_demo.o(i.voice_evt_handler_adpcm)
    i.voice_requeset_data                    0x1fff5840   Section        0  voice_demo.o(i.voice_requeset_data)
    i.wakeupProcess1                         0x1fff5870   Section        0  patch.o(i.wakeupProcess1)
    i.wakeup_init1                           0x1fff5a84   Section        0  patch.o(i.wakeup_init1)
    .constdata                               0x1fff5be0   Section       50  main.o(.constdata)
    .constdata                               0x1fff5c14   Section       16  my_printf.o(.constdata)
    .constdata                               0x1fff5c24   Section       12  uart.o(.constdata)
    .conststring                             0x1fff5c30   Section       84  main.o(.conststring)
    .conststring                             0x1fff5c84   Section       77  my_printf.o(.conststring)
    _section_sram_code_                      0x1fff5d04   Section        8  osal_adc.o(_section_sram_code_)
    _section_sram_code_                      0x1fff5d0c   Section        1  osal_adc.o(_section_sram_code_)
    .data                                    0x1fff5d10   Section        1  main.o(.data)
    .data                                    0x1fff5d14   Section        4  osal_adc.o(.data)
    .data                                    0x1fff5d18   Section        1  voice_queue.o(.data)
    .data                                    0x1fff5d1c   Section        8  voice_demo.o(.data)
    .data                                    0x1fff5d24   Section        8  my_printf.o(.data)
    digits                                   0x1fff5d24   Data           4  my_printf.o(.data)
    upper_digits                             0x1fff5d28   Data           4  my_printf.o(.data)
    .data                                    0x1fff5d2c   Section        2  uart.o(.data)
    m_uart0_even_parity                      0x1fff5d2c   Data           1  uart.o(.data)
    m_uart1_even_parity                      0x1fff5d2d   Data           1  uart.o(.data)
    .data                                    0x1fff5d30   Section       13  pwrmgr.o(.data)
    mPwrMode                                 0x1fff5d30   Data           1  pwrmgr.o(.data)
    s_pwrmgr_cfg                             0x1fff5d31   Data           1  pwrmgr.o(.data)
    s_config_swClk0                          0x1fff5d34   Data           4  pwrmgr.o(.data)
    __tagsym$$used                           0x1fff5d3c   Number         0  pwrmgr.o(.data)
    .data                                    0x1fff5d40   Section       25  adc.o(.data)
    mAdc_init_flg                            0x1fff5d40   Data           1  adc.o(.data)
    adc_cal_read_flag                        0x1fff5d41   Data           1  adc.o(.data)
    high_threshold_flag                      0x1fff5d42   Data           1  adc.o(.data)
    adc_cal_postive                          0x1fff5d44   Data           2  adc.o(.data)
    adc_cal_negtive                          0x1fff5d46   Data           2  adc.o(.data)
    adc_compare_enable_flag                  0x1fff5d48   Data           4  adc.o(.data)
    adc_compare_filter_counter               0x1fff5d4c   Data           4  adc.o(.data)
    .data                                    0x1fff5d5c   Section       15  flash.o(.data)
    s_xflashCtx                              0x1fff5d60   Data           4  flash.o(.data)
    .data                                    0x1fff5d6c   Section        4  jump_table.o(.data)
    .data                                    0x1fff5d70   Section        4  system_armcm0.o(.data)
    .data                                    0x1fff5d74   Section      105  patch.o(.data)
    init_flag                                0x1fff5d7c   Data           1  patch.o(.data)
    cusum_array                              0x1fff5dc8   Data           5  patch.o(.data)
    .data                                    0x1fff5ddd   Section        1  phy_sec_ext.o(.data)
    .data                                    0x1fff5de0   Section        8  lib_efuse3.o(.data)
    efuse_inf                                0x1fff5de0   Data           8  lib_efuse3.o(.data)
    .bss                                     0x1fff5de8   Section     8224  main.o(.bss)
    .bss                                     0x1fff7e08   Section      524  voice_queue.o(.bss)
    .bss                                     0x1fff8014   Section     1152  voice_demo.o(.bss)
    voiceLeftBuf                             0x1fff8194   Data         768  voice_demo.o(.bss)
    .bss                                     0x1fff8494   Section      304  gpio.o(.bss)
    m_gpioCtx                                0x1fff8494   Data         304  gpio.o(.bss)
    .bss                                     0x1fff85c4   Section       64  uart.o(.bss)
    m_uartCtx                                0x1fff85c4   Data          64  uart.o(.bss)
    .bss                                     0x1fff8604   Section      132  pwrmgr.o(.bss)
    mCtx                                     0x1fff8604   Data         120  pwrmgr.o(.bss)
    .bss                                     0x1fff8688   Section       40  adc.o(.bss)
    mAdc_Ctx                                 0x1fff8688   Data          40  adc.o(.bss)
    .bss                                     0x1fff86b0   Section      528  voice.o(.bss)
    mVoiceCtx                                0x1fff86b0   Data          16  voice.o(.bss)
    voice_data                               0x1fff86c0   Data         512  voice.o(.bss)
    .bss                                     0x1fff88c0   Section      908  patch.o(.bss)
    dis_params                               0x1fff8bec   Data          64  patch.o(.bss)
    s_trng_seed                              0x1fff8c2c   Data          16  patch.o(.bss)
    s_trng_iv                                0x1fff8c3c   Data          16  patch.o(.bss)
    .bss                                     0x1fff8c4c   Section       16  phy_sec_ext.o(.bss)
    STACK                                    0x1fff8c60   Section     1024  startup_armcm0.o(STACK)

    Global Symbols

    Symbol Name                              Value     Ov Type        Size  Object(Section)

    BuildAttributes$$THM_ISAv3M$S$PE$A:L22$X:L11$S22$IEEE1$IW$USESV6$~STKCKD$USESV7$~SHL$OTIME$ROPI$EBA8$MICROLIB$REQ8$PRES8$EABIv2 0x00000000   Number         0  anon$$obj.o ABSOLUTE
    __ARM_use_no_argv                        0x00000000   Number         0  main.o ABSOLUTE
    __cpp_initialize__aeabi_                  - Undefined Weak Reference
    __cxa_finalize                            - Undefined Weak Reference
    _clock_init                               - Undefined Weak Reference
    _microlib_exit                            - Undefined Weak Reference
    __Vectors_Size                           0x000000c0   Number         0  startup_armcm0.o ABSOLUTE
    bx_to_application                        0x000000d5   Thumb Code     0  bb_rom_sym_m0.txt ABSOLUTE
    P256_mul64                               0x000001f9   Thumb Code     0  bb_rom_sym_m0.txt ABSOLUTE
    P256_mul128                              0x0000029d   Thumb Code     0  bb_rom_sym_m0.txt ABSOLUTE
    P256_mulmod                              0x0000032d   Thumb Code     0  bb_rom_sym_m0.txt ABSOLUTE
    P256_sqr64                               0x00000567   Thumb Code     0  bb_rom_sym_m0.txt ABSOLUTE
    P256_sqr128                              0x000005c5   Thumb Code     0  bb_rom_sym_m0.txt ABSOLUTE
    P256_sqrmod                              0x00000641   Thumb Code     0  bb_rom_sym_m0.txt ABSOLUTE
    P256_addmod                              0x00000735   Thumb Code     0  bb_rom_sym_m0.txt ABSOLUTE
    P256_submod                              0x00000791   Thumb Code     0  bb_rom_sym_m0.txt ABSOLUTE
    P256_load_1                              0x000007c3   Thumb Code     0  bb_rom_sym_m0.txt ABSOLUTE
    P256_to_montgomery                       0x000007d7   Thumb Code     0  bb_rom_sym_m0.txt ABSOLUTE
    P256_from_montgomery                     0x00000801   Thumb Code     0  bb_rom_sym_m0.txt ABSOLUTE
    P256_point_is_on_curve                   0x0000081b   Thumb Code     0  bb_rom_sym_m0.txt ABSOLUTE
    P256_greater_or_equal_than               0x0000086d   Thumb Code     0  bb_rom_sym_m0.txt ABSOLUTE
    P256_negate_mod_m_if                     0x00000887   Thumb Code     0  bb_rom_sym_m0.txt ABSOLUTE
    P256_copy32                              0x000008a9   Thumb Code     0  bb_rom_sym_m0.txt ABSOLUTE
    P256_copy32_unaligned                    0x000008b5   Thumb Code     0  bb_rom_sym_m0.txt ABSOLUTE
    P256_select                              0x000008c7   Thumb Code     0  bb_rom_sym_m0.txt ABSOLUTE
    P256_double_j                            0x00000927   Thumb Code     0  bb_rom_sym_m0.txt ABSOLUTE
    P256_add_j                               0x0000092b   Thumb Code     0  bb_rom_sym_m0.txt ABSOLUTE
    P256_div2mod                             0x00000983   Thumb Code     0  bb_rom_sym_m0.txt ABSOLUTE
    P256_interpreter                         0x000009e9   Thumb Code     0  bb_rom_sym_m0.txt ABSOLUTE
    P256_sqrmod_many_and_mulmod              0x00000a4d   Thumb Code     0  bb_rom_sym_m0.txt ABSOLUTE
    P256_modinv                              0x00000a6d   Thumb Code     0  bb_rom_sym_m0.txt ABSOLUTE
    P256_jacobian_to_affine                  0x00000af7   Thumb Code     0  bb_rom_sym_m0.txt ABSOLUTE
    P256_abs_int                             0x00000b33   Thumb Code     0  bb_rom_sym_m0.txt ABSOLUTE
    P256_pointmult                           0x00000b41   Thumb Code     0  bb_rom_sym_m0.txt ABSOLUTE
    P256_ecdh_keygen                         0x00000d03   Thumb Code     0  bb_rom_sym_m0.txt ABSOLUTE
    P256_ecdh_shared_secret                  0x00000d0b   Thumb Code     0  bb_rom_sym_m0.txt ABSOLUTE
    __aeabi_uidiv                            0x00000e09   Thumb Code     0  bb_rom_sym_m0.txt ABSOLUTE
    __aeabi_uidivmod                         0x00000e09   Thumb Code     0  bb_rom_sym_m0.txt ABSOLUTE
    __aeabi_idiv                             0x00000e35   Thumb Code     0  bb_rom_sym_m0.txt ABSOLUTE
    __aeabi_idivmod                          0x00000e35   Thumb Code     0  bb_rom_sym_m0.txt ABSOLUTE
    __aeabi_memcpy                           0x00000e81   Thumb Code     0  bb_rom_sym_m0.txt ABSOLUTE
    __aeabi_memcpy4                          0x00000e81   Thumb Code     0  bb_rom_sym_m0.txt ABSOLUTE
    __aeabi_memcpy8                          0x00000e81   Thumb Code     0  bb_rom_sym_m0.txt ABSOLUTE
    __aeabi_memset                           0x00000ea5   Thumb Code     0  bb_rom_sym_m0.txt ABSOLUTE
    __aeabi_memset4                          0x00000ea5   Thumb Code     0  bb_rom_sym_m0.txt ABSOLUTE
    __aeabi_memset8                          0x00000ea5   Thumb Code     0  bb_rom_sym_m0.txt ABSOLUTE
    __aeabi_memclr                           0x00000eb3   Thumb Code     0  bb_rom_sym_m0.txt ABSOLUTE
    __aeabi_memclr4                          0x00000eb3   Thumb Code     0  bb_rom_sym_m0.txt ABSOLUTE
    __aeabi_memclr8                          0x00000eb3   Thumb Code     0  bb_rom_sym_m0.txt ABSOLUTE
    memset                                   0x00000eb7   Thumb Code     0  bb_rom_sym_m0.txt ABSOLUTE
    strlen                                   0x00000ec9   Thumb Code     0  bb_rom_sym_m0.txt ABSOLUTE
    strcmp                                   0x00000ed7   Thumb Code     0  bb_rom_sym_m0.txt ABSOLUTE
    memcmp                                   0x00000ef3   Thumb Code     0  bb_rom_sym_m0.txt ABSOLUTE
    strncmp                                  0x00000f0d   Thumb Code     0  bb_rom_sym_m0.txt ABSOLUTE
    strtok                                   0x00000f2d   Thumb Code     0  bb_rom_sym_m0.txt ABSOLUTE
    __aeabi_uread4                           0x00000f75   Thumb Code     0  bb_rom_sym_m0.txt ABSOLUTE
    __rt_uread4                              0x00000f75   Thumb Code     0  bb_rom_sym_m0.txt ABSOLUTE
    _uread4                                  0x00000f75   Thumb Code     0  bb_rom_sym_m0.txt ABSOLUTE
    strtoul                                  0x00000f89   Thumb Code     0  bb_rom_sym_m0.txt ABSOLUTE
    __rt_ctype_table                         0x00001001   Thumb Code     0  bb_rom_sym_m0.txt ABSOLUTE
    _strtoul                                 0x00001009   Thumb Code     0  bb_rom_sym_m0.txt ABSOLUTE
    GPIO_IRQHandler                          0x0000112d   Thumb Code     0  bb_rom_sym_m0.txt ABSOLUTE
    HCI_CommandCompleteEvent                 0x00001175   Thumb Code     0  bb_rom_sym_m0.txt ABSOLUTE
    HCI_CommandStatusEvent                   0x000011fd   Thumb Code     0  bb_rom_sym_m0.txt ABSOLUTE
    HCI_DataBufferOverflowEvent              0x00001251   Thumb Code     0  bb_rom_sym_m0.txt ABSOLUTE
    HCI_DisconnectCmd                        0x0000128d   Thumb Code     0  bb_rom_sym_m0.txt ABSOLUTE
    HCI_EXT_AdvEventNoticeCmd                0x000012a1   Thumb Code     0  bb_rom_sym_m0.txt ABSOLUTE
    HCI_EXT_BuildRevisionCmd                 0x000012a9   Thumb Code     0  bb_rom_sym_m0.txt ABSOLUTE
    HCI_EXT_ClkDivOnHaltCmd                  0x000012e5   Thumb Code     0  bb_rom_sym_m0.txt ABSOLUTE
    HCI_EXT_ConnEventNoticeCmd               0x0000130d   Thumb Code     0  bb_rom_sym_m0.txt ABSOLUTE
    HCI_EXT_DeclareNvUsageCmd                0x00001315   Thumb Code     0  bb_rom_sym_m0.txt ABSOLUTE
    HCI_EXT_DecryptCmd                       0x00001339   Thumb Code     0  bb_rom_sym_m0.txt ABSOLUTE
    HCI_EXT_DelaySleepCmd                    0x0000137d   Thumb Code     0  bb_rom_sym_m0.txt ABSOLUTE
    HCI_EXT_DisconnectImmedCmd               0x000013a5   Thumb Code     0  bb_rom_sym_m0.txt ABSOLUTE
    HCI_EXT_EnablePTMCmd                     0x000013cd   Thumb Code     0  bb_rom_sym_m0.txt ABSOLUTE
    HCI_EXT_EndModemTestCmd                  0x000013e1   Thumb Code     0  bb_rom_sym_m0.txt ABSOLUTE
    HCI_EXT_HaltDuringRfCmd                  0x00001409   Thumb Code     0  bb_rom_sym_m0.txt ABSOLUTE
    HCI_EXT_ModemHopTestTxCmd                0x00001431   Thumb Code     0  bb_rom_sym_m0.txt ABSOLUTE
    HCI_EXT_ModemTestRxCmd                   0x00001459   Thumb Code     0  bb_rom_sym_m0.txt ABSOLUTE
    HCI_EXT_ModemTestTxCmd                   0x00001481   Thumb Code     0  bb_rom_sym_m0.txt ABSOLUTE
    HCI_EXT_NumComplPktsLimitCmd             0x000014a5   Thumb Code     0  bb_rom_sym_m0.txt ABSOLUTE
    HCI_EXT_OnePktPerEvtCmd                  0x000014c9   Thumb Code     0  bb_rom_sym_m0.txt ABSOLUTE
    HCI_EXT_OverlappedProcessingCmd          0x000014f5   Thumb Code     0  bb_rom_sym_m0.txt ABSOLUTE
    HCI_EXT_PERbyChanCmd                     0x0000151d   Thumb Code     0  bb_rom_sym_m0.txt ABSOLUTE
    HCI_EXT_PacketErrorRateCmd               0x00001541   Thumb Code     0  bb_rom_sym_m0.txt ABSOLUTE
    HCI_EXT_ResetSystemCmd                   0x00001575   Thumb Code     0  bb_rom_sym_m0.txt ABSOLUTE
    HCI_EXT_SaveFreqTuneCmd                  0x0000159d   Thumb Code     0  bb_rom_sym_m0.txt ABSOLUTE
    HCI_EXT_SetBDADDRCmd                     0x000015c5   Thumb Code     0  bb_rom_sym_m0.txt ABSOLUTE
    HCI_EXT_SetFastTxResponseTimeCmd         0x00001601   Thumb Code     0  bb_rom_sym_m0.txt ABSOLUTE
    HCI_EXT_SetFreqTuneCmd                   0x00001629   Thumb Code     0  bb_rom_sym_m0.txt ABSOLUTE
    HCI_EXT_SetLocalSupportedFeaturesCmd     0x00001651   Thumb Code     0  bb_rom_sym_m0.txt ABSOLUTE
    HCI_EXT_SetMaxDtmTxPowerCmd              0x00001679   Thumb Code     0  bb_rom_sym_m0.txt ABSOLUTE
    HCI_EXT_SetRxGainCmd                     0x000016a1   Thumb Code     0  bb_rom_sym_m0.txt ABSOLUTE
    HCI_EXT_SetSCACmd                        0x000016d1   Thumb Code     0  bb_rom_sym_m0.txt ABSOLUTE
    HCI_EXT_SetSlaveLatencyOverrideCmd       0x000016f9   Thumb Code     0  bb_rom_sym_m0.txt ABSOLUTE
    HCI_EXT_SetTxPowerCmd                    0x00001721   Thumb Code     0  bb_rom_sym_m0.txt ABSOLUTE
    HCI_ExtTaskRegister                      0x00001751   Thumb Code     0  bb_rom_sym_m0.txt ABSOLUTE
    HCI_GAPTaskRegister                      0x0000175d   Thumb Code     0  bb_rom_sym_m0.txt ABSOLUTE
    HCI_HardwareErrorEvent                   0x00001769   Thumb Code     0  bb_rom_sym_m0.txt ABSOLUTE
    HCI_HostBufferSizeCmd                    0x000017b1   Thumb Code     0  bb_rom_sym_m0.txt ABSOLUTE
    HCI_HostNumCompletedPktCmd               0x000017e1   Thumb Code     0  bb_rom_sym_m0.txt ABSOLUTE
    HCI_Init                                 0x0000183d   Thumb Code     0  bb_rom_sym_m0.txt ABSOLUTE
    HCI_L2CAPTaskRegister                    0x00001879   Thumb Code     0  bb_rom_sym_m0.txt ABSOLUTE
    HCI_LE_AddDevToResolvingListCmd          0x000018a1   Thumb Code     0  bb_rom_sym_m0.txt ABSOLUTE
    HCI_LE_AddWhiteListCmd                   0x000018bd   Thumb Code     0  bb_rom_sym_m0.txt ABSOLUTE
    HCI_LE_ClearResolvingListCmd             0x00001919   Thumb Code     0  bb_rom_sym_m0.txt ABSOLUTE
    HCI_LE_ClearWhiteListCmd                 0x00001935   Thumb Code     0  bb_rom_sym_m0.txt ABSOLUTE
    HCI_LE_Connection_CTE_Request_EnableCmd  0x0000196d   Thumb Code     0  bb_rom_sym_m0.txt ABSOLUTE
    HCI_LE_Connection_CTE_Response_EnableCmd 0x00001999   Thumb Code     0  bb_rom_sym_m0.txt ABSOLUTE
    HCI_LE_ConnectionlessCTE_TransmitEnableCmd 0x000019c1   Thumb Code     0  bb_rom_sym_m0.txt ABSOLUTE
    HCI_LE_ConnectionlessCTE_TransmitParamCmd 0x000019dd   Thumb Code     0  bb_rom_sym_m0.txt ABSOLUTE
    HCI_LE_ConnectionlessIQ_SampleEnableCmd  0x00001a01   Thumb Code     0  bb_rom_sym_m0.txt ABSOLUTE
    HCI_LE_CreateConnCancelCmd               0x00001a31   Thumb Code     0  bb_rom_sym_m0.txt ABSOLUTE
    HCI_LE_CreateConnCmd                     0x00001a4d   Thumb Code     0  bb_rom_sym_m0.txt ABSOLUTE
    HCI_LE_EncryptCmd                        0x00001a89   Thumb Code     0  bb_rom_sym_m0.txt ABSOLUTE
    HCI_LE_PeriodicAdvertisingCreateSyncCancelCmd 0x00001b59   Thumb Code     0  bb_rom_sym_m0.txt ABSOLUTE
    HCI_LE_PeriodicAdvertisingCreateSyncCmd  0x00001b75   Thumb Code     0  bb_rom_sym_m0.txt ABSOLUTE
    HCI_LE_PeriodicAdvertisingTerminateSyncCmd 0x00001b9d   Thumb Code     0  bb_rom_sym_m0.txt ABSOLUTE
    HCI_LE_READ_Anatenna_InfoCmd             0x00001bb9   Thumb Code     0  bb_rom_sym_m0.txt ABSOLUTE
    HCI_LE_RandCmd                           0x00001bd9   Thumb Code     0  bb_rom_sym_m0.txt ABSOLUTE
    HCI_LE_ReadAdvChanTxPowerCmd             0x00001c09   Thumb Code     0  bb_rom_sym_m0.txt ABSOLUTE
    HCI_LE_ReadBufSizeCmd                    0x00001c29   Thumb Code     0  bb_rom_sym_m0.txt ABSOLUTE
    HCI_LE_ReadChannelMapCmd                 0x00001c4d   Thumb Code     0  bb_rom_sym_m0.txt ABSOLUTE
    HCI_LE_ReadLocalSupportedFeaturesCmd     0x00001c99   Thumb Code     0  bb_rom_sym_m0.txt ABSOLUTE
    HCI_LE_ReadMaxDataLengthCmd              0x00001cb9   Thumb Code     0  bb_rom_sym_m0.txt ABSOLUTE
    HCI_LE_ReadPhyMode                       0x00001d71   Thumb Code     0  bb_rom_sym_m0.txt ABSOLUTE
    HCI_LE_ReadRemoteUsedFeaturesCmd         0x00001db1   Thumb Code     0  bb_rom_sym_m0.txt ABSOLUTE
    HCI_LE_ReadResolvingListSizeCmd          0x00001dc5   Thumb Code     0  bb_rom_sym_m0.txt ABSOLUTE
    HCI_LE_ReadSuggestedDefaultDataLengthCmd 0x00001de5   Thumb Code     0  bb_rom_sym_m0.txt ABSOLUTE
    HCI_LE_ReadSupportedStatesCmd            0x00001e15   Thumb Code     0  bb_rom_sym_m0.txt ABSOLUTE
    HCI_LE_ReadWhiteListSizeCmd              0x00001e3d   Thumb Code     0  bb_rom_sym_m0.txt ABSOLUTE
    HCI_LE_ReceiverTestCmd                   0x00001e9d   Thumb Code     0  bb_rom_sym_m0.txt ABSOLUTE
    HCI_LE_RemoveResolvingListCmd            0x00001ee9   Thumb Code     0  bb_rom_sym_m0.txt ABSOLUTE
    HCI_LE_RemoveWhiteListCmd                0x00001f0d   Thumb Code     0  bb_rom_sym_m0.txt ABSOLUTE
    HCI_LE_SetAddressResolutionEnableCmd     0x00001f31   Thumb Code     0  bb_rom_sym_m0.txt ABSOLUTE
    HCI_LE_SetAdvDataCmd                     0x00001f4d   Thumb Code     0  bb_rom_sym_m0.txt ABSOLUTE
    HCI_LE_SetAdvEnableCmd                   0x00001f69   Thumb Code     0  bb_rom_sym_m0.txt ABSOLUTE
    HCI_LE_SetAdvParamCmd                    0x00001f85   Thumb Code     0  bb_rom_sym_m0.txt ABSOLUTE
    HCI_LE_SetDataLengthCmd                  0x00001fb1   Thumb Code     0  bb_rom_sym_m0.txt ABSOLUTE
    HCI_LE_SetDefaultPhyMode                 0x00001fd9   Thumb Code     0  bb_rom_sym_m0.txt ABSOLUTE
    HCI_LE_SetEventMaskCmd                   0x00001ff5   Thumb Code     0  bb_rom_sym_m0.txt ABSOLUTE
    HCI_LE_SetPeriodicAdvDataCmd             0x00002159   Thumb Code     0  bb_rom_sym_m0.txt ABSOLUTE
    HCI_LE_SetPeriodicAdvEnableCmd           0x00002175   Thumb Code     0  bb_rom_sym_m0.txt ABSOLUTE
    HCI_LE_SetPeriodicAdvParameterCmd        0x00002191   Thumb Code     0  bb_rom_sym_m0.txt ABSOLUTE
    HCI_LE_SetPhyMode                        0x000021ad   Thumb Code     0  bb_rom_sym_m0.txt ABSOLUTE
    HCI_LE_SetResolvablePrivateAddressTimeoutCmd 0x000021e9   Thumb Code     0  bb_rom_sym_m0.txt ABSOLUTE
    HCI_LE_SetScanEnableCmd                  0x00002219   Thumb Code     0  bb_rom_sym_m0.txt ABSOLUTE
    HCI_LE_SetScanParamCmd                   0x00002235   Thumb Code     0  bb_rom_sym_m0.txt ABSOLUTE
    HCI_LE_SetScanRspDataCmd                 0x00002255   Thumb Code     0  bb_rom_sym_m0.txt ABSOLUTE
    HCI_LE_Set_ConnectionCTE_ReceiveParamCmd 0x00002271   Thumb Code     0  bb_rom_sym_m0.txt ABSOLUTE
    HCI_LE_Set_ConnectionCTE_TransmitParamCmd 0x0000229d   Thumb Code     0  bb_rom_sym_m0.txt ABSOLUTE
    HCI_LE_StartEncyptCmd                    0x000022e1   Thumb Code     0  bb_rom_sym_m0.txt ABSOLUTE
    HCI_LE_TestEndCmd                        0x000022f5   Thumb Code     0  bb_rom_sym_m0.txt ABSOLUTE
    HCI_LE_TransmitterTestCmd                0x0000231d   Thumb Code     0  bb_rom_sym_m0.txt ABSOLUTE
    HCI_LE_WriteSuggestedDefaultDataLengthCmd 0x00002339   Thumb Code     0  bb_rom_sym_m0.txt ABSOLUTE
    HCI_NumOfCompletedPacketsEvent           0x00002371   Thumb Code     0  bb_rom_sym_m0.txt ABSOLUTE
    HCI_PPLUS_AdvEventDoneNoticeCmd          0x00002401   Thumb Code     0  bb_rom_sym_m0.txt ABSOLUTE
    HCI_PPLUS_ConnEventDoneNoticeCmd         0x00002421   Thumb Code     0  bb_rom_sym_m0.txt ABSOLUTE
    HCI_PPLUS_DateLengthChangedNoticeCmd     0x00002461   Thumb Code     0  bb_rom_sym_m0.txt ABSOLUTE
    HCI_PPLUS_ExtendTRXCmd                   0x000024a1   Thumb Code     0  bb_rom_sym_m0.txt ABSOLUTE
    HCI_PPLUS_PhyUpdateNoticeCmd             0x000024bd   Thumb Code     0  bb_rom_sym_m0.txt ABSOLUTE
    HCI_ProcessEvent                         0x000024fd   Thumb Code     0  bb_rom_sym_m0.txt ABSOLUTE
    HCI_ReadBDADDRCmd                        0x00002551   Thumb Code     0  bb_rom_sym_m0.txt ABSOLUTE
    HCI_ReadLocalSupportedCommandsCmd        0x00002571   Thumb Code     0  bb_rom_sym_m0.txt ABSOLUTE
    HCI_ReadLocalSupportedFeaturesCmd        0x00002589   Thumb Code     0  bb_rom_sym_m0.txt ABSOLUTE
    HCI_ReadLocalVersionInfoCmd              0x000025ad   Thumb Code     0  bb_rom_sym_m0.txt ABSOLUTE
    HCI_ReadRemoteVersionInfoCmd             0x000025f5   Thumb Code     0  bb_rom_sym_m0.txt ABSOLUTE
    HCI_ReadRssiCmd                          0x00002625   Thumb Code     0  bb_rom_sym_m0.txt ABSOLUTE
    HCI_ReadTransmitPowerLevelCmd            0x00002651   Thumb Code     0  bb_rom_sym_m0.txt ABSOLUTE
    HCI_ResetCmd                             0x0000267d   Thumb Code     0  bb_rom_sym_m0.txt ABSOLUTE
    HCI_ReverseBytes                         0x000026a9   Thumb Code     0  bb_rom_sym_m0.txt ABSOLUTE
    HCI_SMPTaskRegister                      0x000026c9   Thumb Code     0  bb_rom_sym_m0.txt ABSOLUTE
    HCI_SendCommandCompleteEvent             0x000026d5   Thumb Code     0  bb_rom_sym_m0.txt ABSOLUTE
    HCI_SendCommandStatusEvent               0x0000277d   Thumb Code     0  bb_rom_sym_m0.txt ABSOLUTE
    HCI_SendControllerToHostEvent            0x0000279d   Thumb Code     0  bb_rom_sym_m0.txt ABSOLUTE
    HCI_SendDataPkt                          0x000027e9   Thumb Code     0  bb_rom_sym_m0.txt ABSOLUTE
    HCI_SetControllerToHostFlowCtrlCmd       0x00002819   Thumb Code     0  bb_rom_sym_m0.txt ABSOLUTE
    HCI_SetEventMaskCmd                      0x0000285d   Thumb Code     0  bb_rom_sym_m0.txt ABSOLUTE
    HCI_TestAppTaskRegister                  0x0000288d   Thumb Code     0  bb_rom_sym_m0.txt ABSOLUTE
    HCI_ValidConnTimeParams                  0x00002899   Thumb Code     0  bb_rom_sym_m0.txt ABSOLUTE
    HCI_VendorSpecifcCommandCompleteEvent    0x000028d9   Thumb Code     0  bb_rom_sym_m0.txt ABSOLUTE
    HCI_bm_alloc                             0x000028e9   Thumb Code     0  bb_rom_sym_m0.txt ABSOLUTE
    HardFault_Handler                        0x000028f1   Thumb Code     0  bb_rom_sym_m0.txt ABSOLUTE
    HardFault_IRQHandler                     0x00002909   Thumb Code     0  bb_rom_sym_m0.txt ABSOLUTE
    LL_AddResolvingListLDevice               0x000029dd   Thumb Code     0  bb_rom_sym_m0.txt ABSOLUTE
    LL_AddWhiteListDevice                    0x00002a95   Thumb Code     0  bb_rom_sym_m0.txt ABSOLUTE
    LL_AdvReportCback                        0x00002b11   Thumb Code     0  bb_rom_sym_m0.txt ABSOLUTE
    LL_CTE_Report_FailedCback                0x00002ca1   Thumb Code     0  bb_rom_sym_m0.txt ABSOLUTE
    LL_ChanMapUpdate                         0x00002d0d   Thumb Code     0  bb_rom_sym_m0.txt ABSOLUTE
    LL_ClearResolvingList                    0x00002f41   Thumb Code     0  bb_rom_sym_m0.txt ABSOLUTE
    LL_ClearWhiteList                        0x00002fbd   Thumb Code     0  bb_rom_sym_m0.txt ABSOLUTE
    LL_ConnActive                            0x00003011   Thumb Code     0  bb_rom_sym_m0.txt ABSOLUTE
    LL_ConnParamUpdateCback                  0x00003039   Thumb Code     0  bb_rom_sym_m0.txt ABSOLUTE
    LL_ConnUpdate                            0x000030e5   Thumb Code     0  bb_rom_sym_m0.txt ABSOLUTE
    LL_ConnectionCompleteCback               0x000031b9   Thumb Code     0  bb_rom_sym_m0.txt ABSOLUTE
    LL_ConnectionIQReportCback               0x000032d5   Thumb Code     0  bb_rom_sym_m0.txt ABSOLUTE
    LL_Connection_CTE_Request_Enable         0x000033e5   Thumb Code     0  bb_rom_sym_m0.txt ABSOLUTE
    LL_Connection_CTE_Response_Enable        0x00003499   Thumb Code     0  bb_rom_sym_m0.txt ABSOLUTE
    LL_ConnectionlessCTE_TransmitEnable      0x00003505   Thumb Code     0  bb_rom_sym_m0.txt ABSOLUTE
    LL_ConnectionlessCTE_TransmitParam       0x000035e5   Thumb Code     0  bb_rom_sym_m0.txt ABSOLUTE
    LL_ConnectionlessIQReportCback           0x000036c1   Thumb Code     0  bb_rom_sym_m0.txt ABSOLUTE
    LL_ConnectionlessIQ_SampleEnable         0x000037c5   Thumb Code     0  bb_rom_sym_m0.txt ABSOLUTE
    LL_CreateConn                            0x00003901   Thumb Code     0  bb_rom_sym_m0.txt ABSOLUTE
    LL_CreateConn0                           0x00003949   Thumb Code     0  bb_rom_sym_m0.txt ABSOLUTE
    LL_CreateConnCancel                      0x00003c91   Thumb Code     0  bb_rom_sym_m0.txt ABSOLUTE
    LL_CreateConnCancel0                     0x00003ca9   Thumb Code     0  bb_rom_sym_m0.txt ABSOLUTE
    LL_CtrlToHostFlowControl                 0x00003d59   Thumb Code     0  bb_rom_sym_m0.txt ABSOLUTE
    LL_DataLengthChangeCback                 0x00003d71   Thumb Code     0  bb_rom_sym_m0.txt ABSOLUTE
    LL_DirectTestEnd                         0x00003e3d   Thumb Code     0  bb_rom_sym_m0.txt ABSOLUTE
    LL_DirectTestTxTest                      0x00003e95   Thumb Code     0  bb_rom_sym_m0.txt ABSOLUTE
    LL_Disconnect                            0x00003eb1   Thumb Code     0  bb_rom_sym_m0.txt ABSOLUTE
    LL_Disconnect0                           0x00003ec9   Thumb Code     0  bb_rom_sym_m0.txt ABSOLUTE
    LL_DisconnectCback                       0x00003f41   Thumb Code     0  bb_rom_sym_m0.txt ABSOLUTE
    LL_ENC_AES128_Encrypt                    0x00003fc5   Thumb Code     0  bb_rom_sym_m0.txt ABSOLUTE
    LL_ENC_AES128_Encrypt0                   0x00003fdd   Thumb Code     0  bb_rom_sym_m0.txt ABSOLUTE
    LL_ENC_Decrypt                           0x000040ed   Thumb Code     0  bb_rom_sym_m0.txt ABSOLUTE
    LL_ENC_Decrypt0                          0x00004105   Thumb Code     0  bb_rom_sym_m0.txt ABSOLUTE
    LL_ENC_Encrypt                           0x00004261   Thumb Code     0  bb_rom_sym_m0.txt ABSOLUTE
    LL_ENC_Encrypt0                          0x00004279   Thumb Code     0  bb_rom_sym_m0.txt ABSOLUTE
    LL_ENC_GenDeviceIV                       0x000043c1   Thumb Code     0  bb_rom_sym_m0.txt ABSOLUTE
    LL_ENC_GenDeviceSKD                      0x000043f1   Thumb Code     0  bb_rom_sym_m0.txt ABSOLUTE
    LL_ENC_GenerateNonce                     0x00004421   Thumb Code     0  bb_rom_sym_m0.txt ABSOLUTE
    LL_ENC_GeneratePseudoRandNum             0x00004459   Thumb Code     0  bb_rom_sym_m0.txt ABSOLUTE
    LL_ENC_GenerateTrueRandNum               0x00004469   Thumb Code     0  bb_rom_sym_m0.txt ABSOLUTE
    LL_ENC_LoadKey                           0x00004489   Thumb Code     0  bb_rom_sym_m0.txt ABSOLUTE
    LL_ENC_ReverseBytes                      0x000044e1   Thumb Code     0  bb_rom_sym_m0.txt ABSOLUTE
    LL_ENC_sm_ah                             0x00004501   Thumb Code     0  bb_rom_sym_m0.txt ABSOLUTE
    LL_EXT_AdvEventNotice                    0x00004543   Thumb Code     0  bb_rom_sym_m0.txt ABSOLUTE
    LL_EXT_BuildRevision                     0x00004547   Thumb Code     0  bb_rom_sym_m0.txt ABSOLUTE
    LL_EXT_ClkDivOnHalt                      0x0000454b   Thumb Code     0  bb_rom_sym_m0.txt ABSOLUTE
    LL_EXT_ConnEventNotice                   0x0000454f   Thumb Code     0  bb_rom_sym_m0.txt ABSOLUTE
    LL_EXT_DeclareNvUsage                    0x00004553   Thumb Code     0  bb_rom_sym_m0.txt ABSOLUTE
    LL_EXT_Decrypt                           0x00004557   Thumb Code     0  bb_rom_sym_m0.txt ABSOLUTE
    LL_EXT_DelaySleep                        0x0000455b   Thumb Code     0  bb_rom_sym_m0.txt ABSOLUTE
    LL_EXT_DisconnectImmed                   0x0000455f   Thumb Code     0  bb_rom_sym_m0.txt ABSOLUTE
    LL_EXT_EndModemTest                      0x00004563   Thumb Code     0  bb_rom_sym_m0.txt ABSOLUTE
    LL_EXT_HaltDuringRf                      0x00004567   Thumb Code     0  bb_rom_sym_m0.txt ABSOLUTE
    LL_EXT_Init_IQ_pBuff                     0x0000456d   Thumb Code     0  bb_rom_sym_m0.txt ABSOLUTE
    LL_EXT_MapPmIoPort                       0x00004581   Thumb Code     0  bb_rom_sym_m0.txt ABSOLUTE
    LL_EXT_ModemHopTestTx                    0x00004585   Thumb Code     0  bb_rom_sym_m0.txt ABSOLUTE
    LL_EXT_ModemTestRx                       0x00004589   Thumb Code     0  bb_rom_sym_m0.txt ABSOLUTE
    LL_EXT_ModemTestTx                       0x0000458d   Thumb Code     0  bb_rom_sym_m0.txt ABSOLUTE
    LL_EXT_NumComplPktsLimit                 0x00004591   Thumb Code     0  bb_rom_sym_m0.txt ABSOLUTE
    LL_EXT_OnePacketPerEvent                 0x000045ad   Thumb Code     0  bb_rom_sym_m0.txt ABSOLUTE
    LL_EXT_OverlappedProcessing              0x000045b1   Thumb Code     0  bb_rom_sym_m0.txt ABSOLUTE
    LL_EXT_PERbyChan                         0x000045b5   Thumb Code     0  bb_rom_sym_m0.txt ABSOLUTE
    LL_EXT_PacketErrorRate                   0x000045b9   Thumb Code     0  bb_rom_sym_m0.txt ABSOLUTE
    LL_EXT_PacketErrorRateCback              0x000045bd   Thumb Code     0  bb_rom_sym_m0.txt ABSOLUTE
    LL_EXT_ResetSystem                       0x000045f9   Thumb Code     0  bb_rom_sym_m0.txt ABSOLUTE
    LL_EXT_SaveFreqTune                      0x000045fd   Thumb Code     0  bb_rom_sym_m0.txt ABSOLUTE
    LL_EXT_SetBDADDR                         0x00004601   Thumb Code     0  bb_rom_sym_m0.txt ABSOLUTE
    LL_EXT_SetFastTxResponseTime             0x00004605   Thumb Code     0  bb_rom_sym_m0.txt ABSOLUTE
    LL_EXT_SetFreqTune                       0x00004609   Thumb Code     0  bb_rom_sym_m0.txt ABSOLUTE
    LL_EXT_SetLocalSupportedFeatures         0x0000460d   Thumb Code     0  bb_rom_sym_m0.txt ABSOLUTE
    LL_EXT_SetMaxDtmTxPower                  0x00004611   Thumb Code     0  bb_rom_sym_m0.txt ABSOLUTE
    LL_EXT_SetRxGain                         0x00004615   Thumb Code     0  bb_rom_sym_m0.txt ABSOLUTE
    LL_EXT_SetRxGainCback                    0x00004619   Thumb Code     0  bb_rom_sym_m0.txt ABSOLUTE
    LL_EXT_SetSCA                            0x00004635   Thumb Code     0  bb_rom_sym_m0.txt ABSOLUTE
    LL_EXT_SetSlaveLatencyOverride           0x00004639   Thumb Code     0  bb_rom_sym_m0.txt ABSOLUTE
    LL_EXT_SetTxPower                        0x0000463d   Thumb Code     0  bb_rom_sym_m0.txt ABSOLUTE
    LL_EXT_SetTxPowerCback                   0x00004679   Thumb Code     0  bb_rom_sym_m0.txt ABSOLUTE
    LL_EncChangeCback                        0x00004699   Thumb Code     0  bb_rom_sym_m0.txt ABSOLUTE
    LL_EncKeyRefreshCback                    0x00004715   Thumb Code     0  bb_rom_sym_m0.txt ABSOLUTE
    LL_EncLtkReqCback                        0x00004831   Thumb Code     0  bb_rom_sym_m0.txt ABSOLUTE
    LL_Encrypt                               0x000048e5   Thumb Code     0  bb_rom_sym_m0.txt ABSOLUTE
    LL_ExtAdvReportCback                     0x00004a8d   Thumb Code     0  bb_rom_sym_m0.txt ABSOLUTE
    LL_IRQHandler                            0x00004e25   Thumb Code     0  bb_rom_sym_m0.txt ABSOLUTE
    LL_Init                                  0x00004eb1   Thumb Code     0  bb_rom_sym_m0.txt ABSOLUTE
    LL_InitExtendedAdv                       0x0000511d   Thumb Code     0  bb_rom_sym_m0.txt ABSOLUTE
    LL_InitExtendedScan                      0x000051b5   Thumb Code     0  bb_rom_sym_m0.txt ABSOLUTE
    LL_InitPeriodicAdv                       0x000051c5   Thumb Code     0  bb_rom_sym_m0.txt ABSOLUTE
    LL_NumEmptyWlEntries                     0x00005291   Thumb Code     0  bb_rom_sym_m0.txt ABSOLUTE
    LL_PLUS_DisableSlaveLatency              0x000052a5   Thumb Code     0  bb_rom_sym_m0.txt ABSOLUTE
    LL_PLUS_EnableSlaveLatency               0x00005435   Thumb Code     0  bb_rom_sym_m0.txt ABSOLUTE
    LL_PLUS_GetAdvDataExtendData             0x0000548d   Thumb Code     0  bb_rom_sym_m0.txt ABSOLUTE
    LL_PLUS_GetScanRequestExtendData         0x00005495   Thumb Code     0  bb_rom_sym_m0.txt ABSOLUTE
    LL_PLUS_GetScanerAddr                    0x000054bd   Thumb Code     0  bb_rom_sym_m0.txt ABSOLUTE
    LL_PLUS_PerStasReadByChn                 0x000054d5   Thumb Code     0  bb_rom_sym_m0.txt ABSOLUTE
    LL_PLUS_PerStatsReset                    0x00005519   Thumb Code     0  bb_rom_sym_m0.txt ABSOLUTE
    LL_PLUS_PerStats_Init                    0x00005535   Thumb Code     0  bb_rom_sym_m0.txt ABSOLUTE
    LL_PLUS_SetAdvDataFilterCB               0x00005545   Thumb Code     0  bb_rom_sym_m0.txt ABSOLUTE
    LL_PLUS_SetScanRequestData               0x00005551   Thumb Code     0  bb_rom_sym_m0.txt ABSOLUTE
    LL_PLUS_SetScanRequestFilterCB           0x00005579   Thumb Code     0  bb_rom_sym_m0.txt ABSOLUTE
    LL_PLUS_SetScanRsqData                   0x00005585   Thumb Code     0  bb_rom_sym_m0.txt ABSOLUTE
    LL_PLUS_SetScanRsqDataByIndex            0x000055b1   Thumb Code     0  bb_rom_sym_m0.txt ABSOLUTE
    LL_PeriodicAdvertisingCreateSync         0x000055bd   Thumb Code     0  bb_rom_sym_m0.txt ABSOLUTE
    LL_PeriodicAdvertisingCreateSyncCancel   0x0000560d   Thumb Code     0  bb_rom_sym_m0.txt ABSOLUTE
    LL_PeriodicAdvertisingTerminateSync      0x00005635   Thumb Code     0  bb_rom_sym_m0.txt ABSOLUTE
    LL_PhyUpdate                             0x00005655   Thumb Code     0  bb_rom_sym_m0.txt ABSOLUTE
    LL_PhyUpdate0                            0x0000566d   Thumb Code     0  bb_rom_sym_m0.txt ABSOLUTE
    LL_PhyUpdateCompleteCback                0x00005725   Thumb Code     0  bb_rom_sym_m0.txt ABSOLUTE
    LL_PrdAdvReportCback                     0x000057c9   Thumb Code     0  bb_rom_sym_m0.txt ABSOLUTE
    LL_PrdAdvSyncEstablishedCback            0x000058b5   Thumb Code     0  bb_rom_sym_m0.txt ABSOLUTE
    LL_PrdAdvSyncLostCback                   0x00005989   Thumb Code     0  bb_rom_sym_m0.txt ABSOLUTE
    LL_ProcessEvent                          0x000059f1   Thumb Code     0  bb_rom_sym_m0.txt ABSOLUTE
    LL_ProcessEvent0                         0x00005a09   Thumb Code     0  bb_rom_sym_m0.txt ABSOLUTE
    LL_PseudoRand                            0x00005dd9   Thumb Code     0  bb_rom_sym_m0.txt ABSOLUTE
    LL_READ_Anatenna_Info                    0x00005ddd   Thumb Code     0  bb_rom_sym_m0.txt ABSOLUTE
    LL_RX_bm_alloc                           0x00005df1   Thumb Code     0  bb_rom_sym_m0.txt ABSOLUTE
    LL_Rand                                  0x00005e05   Thumb Code     0  bb_rom_sym_m0.txt ABSOLUTE
    LL_RandCback                             0x00005e65   Thumb Code     0  bb_rom_sym_m0.txt ABSOLUTE
    LL_ReadAdvChanTxPower                    0x00005e89   Thumb Code     0  bb_rom_sym_m0.txt ABSOLUTE
    LL_ReadBDADDR                            0x00005eb9   Thumb Code     0  bb_rom_sym_m0.txt ABSOLUTE
    LL_ReadCarrSens                          0x00005edd   Thumb Code     0  bb_rom_sym_m0.txt ABSOLUTE
    LL_ReadChanMap                           0x00005ef9   Thumb Code     0  bb_rom_sym_m0.txt ABSOLUTE
    LL_ReadFoff                              0x00005f31   Thumb Code     0  bb_rom_sym_m0.txt ABSOLUTE
    LL_ReadLocalSupportedFeatures            0x00005f71   Thumb Code     0  bb_rom_sym_m0.txt ABSOLUTE
    LL_ReadLocalVersionInfo                  0x00005f8d   Thumb Code     0  bb_rom_sym_m0.txt ABSOLUTE
    LL_ReadRemoteUsedFeatures                0x00006021   Thumb Code     0  bb_rom_sym_m0.txt ABSOLUTE
    LL_ReadRemoteUsedFeaturesCompleteCback   0x00006061   Thumb Code     0  bb_rom_sym_m0.txt ABSOLUTE
    LL_ReadRemoteVersionInfo                 0x000060d5   Thumb Code     0  bb_rom_sym_m0.txt ABSOLUTE
    LL_ReadRemoteVersionInfoCback            0x00006131   Thumb Code     0  bb_rom_sym_m0.txt ABSOLUTE
    LL_ReadResolvingListSize                 0x000061a9   Thumb Code     0  bb_rom_sym_m0.txt ABSOLUTE
    LL_ReadRssi                              0x000061b1   Thumb Code     0  bb_rom_sym_m0.txt ABSOLUTE
    LL_ReadSupportedStates                   0x000061e5   Thumb Code     0  bb_rom_sym_m0.txt ABSOLUTE
    LL_ReadTxPowerLevel                      0x00006269   Thumb Code     0  bb_rom_sym_m0.txt ABSOLUTE
    LL_ReadWlSize                            0x000062e5   Thumb Code     0  bb_rom_sym_m0.txt ABSOLUTE
    LL_RemoveResolvingListDevice             0x000064a5   Thumb Code     0  bb_rom_sym_m0.txt ABSOLUTE
    LL_RemoveWhiteListDevice                 0x00006561   Thumb Code     0  bb_rom_sym_m0.txt ABSOLUTE
    LL_Reset                                 0x000065f1   Thumb Code     0  bb_rom_sym_m0.txt ABSOLUTE
    LL_Reset0                                0x00006609   Thumb Code     0  bb_rom_sym_m0.txt ABSOLUTE
    LL_RxDataCompleteCback                   0x00006791   Thumb Code     0  bb_rom_sym_m0.txt ABSOLUTE
    LL_SetAddressResolutionEnable            0x00006831   Thumb Code     0  bb_rom_sym_m0.txt ABSOLUTE
    LL_SetAdvControl                         0x00006881   Thumb Code     0  bb_rom_sym_m0.txt ABSOLUTE
    LL_SetAdvControl0                        0x00006899   Thumb Code     0  bb_rom_sym_m0.txt ABSOLUTE
    LL_SetAdvData                            0x00006a05   Thumb Code     0  bb_rom_sym_m0.txt ABSOLUTE
    LL_SetAdvParam                           0x00006a6d   Thumb Code     0  bb_rom_sym_m0.txt ABSOLUTE
    LL_SetAdvParam0                          0x00006a9d   Thumb Code     0  bb_rom_sym_m0.txt ABSOLUTE
    LL_SetDataLengh                          0x00006df9   Thumb Code     0  bb_rom_sym_m0.txt ABSOLUTE
    LL_SetDataLengh0                         0x00006e11   Thumb Code     0  bb_rom_sym_m0.txt ABSOLUTE
    LL_SetDefaultPhyMode                     0x00006ead   Thumb Code     0  bb_rom_sym_m0.txt ABSOLUTE
    LL_SetPeriodicAdvData                    0x0000751d   Thumb Code     0  bb_rom_sym_m0.txt ABSOLUTE
    LL_SetPeriodicAdvEnable                  0x000075cd   Thumb Code     0  bb_rom_sym_m0.txt ABSOLUTE
    LL_SetPeriodicAdvParameter               0x00007715   Thumb Code     0  bb_rom_sym_m0.txt ABSOLUTE
    LL_SetPhyMode                            0x000077e1   Thumb Code     0  bb_rom_sym_m0.txt ABSOLUTE
    LL_SetPhyMode0                           0x000077fd   Thumb Code     0  bb_rom_sym_m0.txt ABSOLUTE
    LL_SetResolvablePrivateAddressTimeout    0x00007929   Thumb Code     0  bb_rom_sym_m0.txt ABSOLUTE
    LL_SetScanControl                        0x00007935   Thumb Code     0  bb_rom_sym_m0.txt ABSOLUTE
    LL_SetScanControl0                       0x0000794d   Thumb Code     0  bb_rom_sym_m0.txt ABSOLUTE
    LL_SetScanParam                          0x00007a59   Thumb Code     0  bb_rom_sym_m0.txt ABSOLUTE
    LL_SetScanParam0                         0x00007a75   Thumb Code     0  bb_rom_sym_m0.txt ABSOLUTE
    LL_SetScanRspData                        0x00007b15   Thumb Code     0  bb_rom_sym_m0.txt ABSOLUTE
    LL_SetTxPowerLevel                       0x00007b65   Thumb Code     0  bb_rom_sym_m0.txt ABSOLUTE
    LL_Set_ConnectionCTE_ReceiveParam        0x00007b91   Thumb Code     0  bb_rom_sym_m0.txt ABSOLUTE
    LL_Set_ConnectionCTE_TransmitParam       0x00007c99   Thumb Code     0  bb_rom_sym_m0.txt ABSOLUTE
    LL_StartEncrypt                          0x00007e01   Thumb Code     0  bb_rom_sym_m0.txt ABSOLUTE
    LL_TX_bm_alloc                           0x00007f01   Thumb Code     0  bb_rom_sym_m0.txt ABSOLUTE
    LL_TxData                                0x00007f1d   Thumb Code     0  bb_rom_sym_m0.txt ABSOLUTE
    LL_TxData0                               0x00007f35   Thumb Code     0  bb_rom_sym_m0.txt ABSOLUTE
    LL_WriteSuggestedDefaultDataLength       0x00007fb9   Thumb Code     0  bb_rom_sym_m0.txt ABSOLUTE
    LL_evt_schedule                          0x00007ff9   Thumb Code     0  bb_rom_sym_m0.txt ABSOLUTE
    LL_master_conn_event                     0x000080bd   Thumb Code     0  bb_rom_sym_m0.txt ABSOLUTE
    LL_master_conn_event0                    0x000080d5   Thumb Code     0  bb_rom_sym_m0.txt ABSOLUTE
    LL_prdAdvTimerExpProcess                 0x0000826d   Thumb Code     0  bb_rom_sym_m0.txt ABSOLUTE
    LL_prdScanTimerExpProcess                0x00008271   Thumb Code     0  bb_rom_sym_m0.txt ABSOLUTE
    LL_set_default_conn_params               0x00008275   Thumb Code     0  bb_rom_sym_m0.txt ABSOLUTE
    LL_set_default_conn_params0              0x0000828d   Thumb Code     0  bb_rom_sym_m0.txt ABSOLUTE
    LL_slave_conn_event                      0x000082b9   Thumb Code     0  bb_rom_sym_m0.txt ABSOLUTE
    LL_slave_conn_event0                     0x000082d1   Thumb Code     0  bb_rom_sym_m0.txt ABSOLUTE
    NMI_Handler                              0x00008481   Thumb Code     0  bb_rom_sym_m0.txt ABSOLUTE
    PendSV_Handler                           0x000084cd   Thumb Code     0  bb_rom_sym_m0.txt ABSOLUTE
    TIM1_IRQHandler                          0x00008545   Thumb Code     0  bb_rom_sym_m0.txt ABSOLUTE
    WaitRTCCount                             0x00008901   Thumb Code     0  bb_rom_sym_m0.txt ABSOLUTE
    __ARM_common_switch8                     0x00008961   Thumb Code     0  bb_rom_sym_m0.txt ABSOLUTE
    _spif_read_status_reg                    0x0000961d   Thumb Code     0  bb_rom_sym_m0.txt ABSOLUTE
    _spif_wait_nobusy                        0x00009645   Thumb Code     0  bb_rom_sym_m0.txt ABSOLUTE
    app_sleep_process                        0x00009769   Thumb Code     0  bb_rom_sym_m0.txt ABSOLUTE
    app_wakeup_process                       0x00009779   Thumb Code     0  bb_rom_sym_m0.txt ABSOLUTE
    ate_fun_test                             0x00009789   Thumb Code     0  bb_rom_sym_m0.txt ABSOLUTE
    ate_sleep_process                        0x00009d11   Thumb Code     0  bb_rom_sym_m0.txt ABSOLUTE
    ate_wakeup_process                       0x0000a121   Thumb Code     0  bb_rom_sym_m0.txt ABSOLUTE
    bit_to_byte                              0x0000a1e9   Thumb Code     0  bb_rom_sym_m0.txt ABSOLUTE
    ble_crc24_gen                            0x0000a201   Thumb Code     0  bb_rom_sym_m0.txt ABSOLUTE
    boot_init                                0x0000a361   Thumb Code     0  bb_rom_sym_m0.txt ABSOLUTE
    boot_init0                               0x0000a379   Thumb Code     0  bb_rom_sym_m0.txt ABSOLUTE
    boot_m0                                  0x0000a3c1   Thumb Code     0  bb_rom_sym_m0.txt ABSOLUTE
    byte_to_bit                              0x0000a535   Thumb Code     0  bb_rom_sym_m0.txt ABSOLUTE
    calculate_whiten_seed                    0x0000a549   Thumb Code     0  bb_rom_sym_m0.txt ABSOLUTE
    clear_timer                              0x0000a5c1   Thumb Code     0  bb_rom_sym_m0.txt ABSOLUTE
    clear_timer_int                          0x0000a5cb   Thumb Code     0  bb_rom_sym_m0.txt ABSOLUTE
    clk_get_pclk                             0x0000a5d1   Thumb Code     0  bb_rom_sym_m0.txt ABSOLUTE
    clk_set_pclk_div                         0x0000a681   Thumb Code     0  bb_rom_sym_m0.txt ABSOLUTE
    clk_spif_ref_clk                         0x0000a6a1   Thumb Code     0  bb_rom_sym_m0.txt ABSOLUTE
    config_RTC                               0x0000a6f9   Thumb Code     0  bb_rom_sym_m0.txt ABSOLUTE
    config_RTC0                              0x0000a711   Thumb Code     0  bb_rom_sym_m0.txt ABSOLUTE
    rom_crc16                                0x0000a755   Thumb Code     0  bb_rom_sym_m0.txt ABSOLUTE
    debug_print                              0x0000a791   Thumb Code     0  bb_rom_sym_m0.txt ABSOLUTE
    disableSleep                             0x0000a921   Thumb Code     0  bb_rom_sym_m0.txt ABSOLUTE
    drv_disable_irq                          0x0000a975   Thumb Code     0  bb_rom_sym_m0.txt ABSOLUTE
    drv_enable_irq                           0x0000a99d   Thumb Code     0  bb_rom_sym_m0.txt ABSOLUTE
    drv_irq_init                             0x0000a9c9   Thumb Code     0  bb_rom_sym_m0.txt ABSOLUTE
    dwc_connect                              0x0000a9fd   Thumb Code     0  bb_rom_sym_m0.txt ABSOLUTE
    dwc_data_process                         0x0000aa35   Thumb Code     0  bb_rom_sym_m0.txt ABSOLUTE
    dwc_loop                                 0x0000abd1   Thumb Code     0  bb_rom_sym_m0.txt ABSOLUTE
    efuse_read                               0x0000ace1   Thumb Code     0  bb_rom_sym_m0.txt ABSOLUTE
    enableSleep                              0x0000aead   Thumb Code     0  bb_rom_sym_m0.txt ABSOLUTE
    enterSleepProcess                        0x0000aeb9   Thumb Code     0  bb_rom_sym_m0.txt ABSOLUTE
    enterSleepProcess0                       0x0000aed1   Thumb Code     0  bb_rom_sym_m0.txt ABSOLUTE
    enter_sleep_off_mode                     0x0000afa1   Thumb Code     0  bb_rom_sym_m0.txt ABSOLUTE
    enter_sleep_off_mode0                    0x0000afb9   Thumb Code     0  bb_rom_sym_m0.txt ABSOLUTE
    getMcuPrecisionCount                     0x0000afe9   Thumb Code     0  bb_rom_sym_m0.txt ABSOLUTE
    getPN23RandNumber                        0x0000aff5   Thumb Code     0  bb_rom_sym_m0.txt ABSOLUTE
    getRxBufferFree                          0x0000b01d   Thumb Code     0  bb_rom_sym_m0.txt ABSOLUTE
    getRxBufferSize                          0x0000b031   Thumb Code     0  bb_rom_sym_m0.txt ABSOLUTE
    getSleepMode                             0x0000b051   Thumb Code     0  bb_rom_sym_m0.txt ABSOLUTE
    getTxBufferFree                          0x0000b05d   Thumb Code     0  bb_rom_sym_m0.txt ABSOLUTE
    getTxBufferSize                          0x0000b071   Thumb Code     0  bb_rom_sym_m0.txt ABSOLUTE
    get_rx_read_ptr                          0x0000b0b1   Thumb Code     0  bb_rom_sym_m0.txt ABSOLUTE
    get_rx_write_ptr                         0x0000b0b9   Thumb Code     0  bb_rom_sym_m0.txt ABSOLUTE
    get_sleep_flag                           0x0000b0c1   Thumb Code     0  bb_rom_sym_m0.txt ABSOLUTE
    get_timer_count                          0x0000b0cd   Thumb Code     0  bb_rom_sym_m0.txt ABSOLUTE
    get_timer_int                            0x0000b0d1   Thumb Code     0  bb_rom_sym_m0.txt ABSOLUTE
    get_tx_read_ptr                          0x0000b0d9   Thumb Code     0  bb_rom_sym_m0.txt ABSOLUTE
    get_tx_write_ptr                         0x0000b0e1   Thumb Code     0  bb_rom_sym_m0.txt ABSOLUTE
    gpio_cfg_analog_io                       0x0000b0e9   Thumb Code     0  bb_rom_sym_m0.txt ABSOLUTE
    gpio_dir                                 0x0000b119   Thumb Code     0  bb_rom_sym_m0.txt ABSOLUTE
    gpio_fmux_control                        0x0000b15d   Thumb Code     0  bb_rom_sym_m0.txt ABSOLUTE
    gpio_fmux_set                            0x0000b179   Thumb Code     0  bb_rom_sym_m0.txt ABSOLUTE
    gpio_in_trigger                          0x0000b1b1   Thumb Code     0  bb_rom_sym_m0.txt ABSOLUTE
    gpio_init                                0x0000b219   Thumb Code     0  bb_rom_sym_m0.txt ABSOLUTE
    gpio_interrupt_set                       0x0000b22d   Thumb Code     0  bb_rom_sym_m0.txt ABSOLUTE
    gpio_pull_set                            0x0000b249   Thumb Code     0  bb_rom_sym_m0.txt ABSOLUTE
    gpio_read                                0x0000b291   Thumb Code     0  bb_rom_sym_m0.txt ABSOLUTE
    gpio_wakeup_set                          0x0000b2b5   Thumb Code     0  bb_rom_sym_m0.txt ABSOLUTE
    gpio_write                               0x0000b319   Thumb Code     0  bb_rom_sym_m0.txt ABSOLUTE
    rom_uart_init                            0x0000b379   Thumb Code     0  bb_rom_sym_m0.txt ABSOLUTE
    hciInitEventMasks                        0x0000b52d   Thumb Code     0  bb_rom_sym_m0.txt ABSOLUTE
    isSleepAllow                             0x0000b555   Thumb Code     0  bb_rom_sym_m0.txt ABSOLUTE
    isTimer1Running                          0x0000b561   Thumb Code     0  bb_rom_sym_m0.txt ABSOLUTE
    isTimer4Running                          0x0000b571   Thumb Code     0  bb_rom_sym_m0.txt ABSOLUTE
    jump_area_init                           0x0000b581   Thumb Code     0  bb_rom_sym_m0.txt ABSOLUTE
    ll24BitTimeCompare                       0x0000b5a9   Thumb Code     0  bb_rom_sym_m0.txt ABSOLUTE
    llAdjSlaveLatencyValue                   0x0000b609   Thumb Code     0  bb_rom_sym_m0.txt ABSOLUTE
    llAllocConnId                            0x0000b629   Thumb Code     0  bb_rom_sym_m0.txt ABSOLUTE
    llAllocateSyncHandle                     0x0000b679   Thumb Code     0  bb_rom_sym_m0.txt ABSOLUTE
    llAtLeastTwoChans                        0x0000b6a9   Thumb Code     0  bb_rom_sym_m0.txt ABSOLUTE
    llCalcMaxScanTime                        0x0000b6ed   Thumb Code     0  bb_rom_sym_m0.txt ABSOLUTE
    llCalcScaFactor                          0x0000b745   Thumb Code     0  bb_rom_sym_m0.txt ABSOLUTE
    llCalcTimerDrift                         0x0000b76d   Thumb Code     0  bb_rom_sym_m0.txt ABSOLUTE
    llCheckForLstoDuringSL                   0x0000b7b1   Thumb Code     0  bb_rom_sym_m0.txt ABSOLUTE
    llCheckWhiteListUsage                    0x0000b7ed   Thumb Code     0  bb_rom_sym_m0.txt ABSOLUTE
    llConnCleanup                            0x0000b809   Thumb Code     0  bb_rom_sym_m0.txt ABSOLUTE
    llConnTerminate                          0x0000b839   Thumb Code     0  bb_rom_sym_m0.txt ABSOLUTE
    llConnTerminate0                         0x0000b851   Thumb Code     0  bb_rom_sym_m0.txt ABSOLUTE
    llConvertCtrlProcTimeoutToEvent          0x0000b87d   Thumb Code     0  bb_rom_sym_m0.txt ABSOLUTE
    llConvertLstoToEvent                     0x0000b899   Thumb Code     0  bb_rom_sym_m0.txt ABSOLUTE
    llDeleteSyncHandle                       0x0000b8bd   Thumb Code     0  bb_rom_sym_m0.txt ABSOLUTE
    llDequeueCtrlPkt                         0x0000b8ed   Thumb Code     0  bb_rom_sym_m0.txt ABSOLUTE
    llDequeueDataQ                           0x0000b929   Thumb Code     0  bb_rom_sym_m0.txt ABSOLUTE
    llEnqueueCtrlPkt                         0x0000b953   Thumb Code     0  bb_rom_sym_m0.txt ABSOLUTE
    llEnqueueDataQ                           0x0000b98b   Thumb Code     0  bb_rom_sym_m0.txt ABSOLUTE
    llEqAlreadyValidAddr                     0x0000b9b1   Thumb Code     0  bb_rom_sym_m0.txt ABSOLUTE
    llEqSynchWord                            0x0000b9b5   Thumb Code     0  bb_rom_sym_m0.txt ABSOLUTE
    llEqualBytes                             0x0000b9c9   Thumb Code     0  bb_rom_sym_m0.txt ABSOLUTE
    llEventDelta                             0x0000b9e9   Thumb Code     0  bb_rom_sym_m0.txt ABSOLUTE
    llEventInRange                           0x0000b9fd   Thumb Code     0  bb_rom_sym_m0.txt ABSOLUTE
    llGenerateCRC                            0x0000ba1b   Thumb Code     0  bb_rom_sym_m0.txt ABSOLUTE
    llGenerateValidAccessAddr                0x0000ba3d   Thumb Code     0  bb_rom_sym_m0.txt ABSOLUTE
    llGetNextAdvChn                          0x0000ba6d   Thumb Code     0  bb_rom_sym_m0.txt ABSOLUTE
    llGetNextAuxAdvChn                       0x0000bac1   Thumb Code     0  bb_rom_sym_m0.txt ABSOLUTE
    llGetNextDataChan                        0x0000bae5   Thumb Code     0  bb_rom_sym_m0.txt ABSOLUTE
    llGetNextDataChanCSA2                    0x0000bb23   Thumb Code     0  bb_rom_sym_m0.txt ABSOLUTE
    llGtSixConsecZerosOrOnes                 0x0000bb81   Thumb Code     0  bb_rom_sym_m0.txt ABSOLUTE
    llGtTwentyFourTransitions                0x0000bbb3   Thumb Code     0  bb_rom_sym_m0.txt ABSOLUTE
    llInitFeatureSet                         0x0000bbe5   Thumb Code     0  bb_rom_sym_m0.txt ABSOLUTE
    llInitFeatureSet2MPHY                    0x0000bc1d   Thumb Code     0  bb_rom_sym_m0.txt ABSOLUTE
    llInitFeatureSetCodedPHY                 0x0000bc45   Thumb Code     0  bb_rom_sym_m0.txt ABSOLUTE
    llInitFeatureSetDLE                      0x0000bc6d   Thumb Code     0  bb_rom_sym_m0.txt ABSOLUTE
    llLtTwoChangesInLastSixBits              0x0000bc89   Thumb Code     0  bb_rom_sym_m0.txt ABSOLUTE
    llMasterEvt_TaskEndOk                    0x0000bcb9   Thumb Code     0  bb_rom_sym_m0.txt ABSOLUTE
    llMemCopyDst                             0x0000be05   Thumb Code     0  bb_rom_sym_m0.txt ABSOLUTE
    llMemCopySrc                             0x0000be1b   Thumb Code     0  bb_rom_sym_m0.txt ABSOLUTE
    llOneBitSynchWordDiffer                  0x0000be35   Thumb Code     0  bb_rom_sym_m0.txt ABSOLUTE
    llPduLengthManagmentReset                0x0000be4d   Thumb Code     0  bb_rom_sym_m0.txt ABSOLUTE
    llPduLengthUpdate                        0x0000bf01   Thumb Code     0  bb_rom_sym_m0.txt ABSOLUTE
    llPendingUpdateParam                     0x0000c00d   Thumb Code     0  bb_rom_sym_m0.txt ABSOLUTE
    llPhyModeCtrlReset                       0x0000c051   Thumb Code     0  bb_rom_sym_m0.txt ABSOLUTE
    llPhyModeCtrlUpdateNotify                0x0000c0b9   Thumb Code     0  bb_rom_sym_m0.txt ABSOLUTE
    llPrdAdvDecideNextChn                    0x0000c0f5   Thumb Code     0  bb_rom_sym_m0.txt ABSOLUTE
    llProcessChanMap                         0x0000c185   Thumb Code     0  bb_rom_sym_m0.txt ABSOLUTE
    llProcessMasterControlPacket             0x0000c1d1   Thumb Code     0  bb_rom_sym_m0.txt ABSOLUTE
    llProcessMasterControlPacket0            0x0000c1e9   Thumb Code     0  bb_rom_sym_m0.txt ABSOLUTE
    llProcessMasterControlProcedures         0x0000c5b9   Thumb Code     0  bb_rom_sym_m0.txt ABSOLUTE
    llProcessRxData                          0x0000ca85   Thumb Code     0  bb_rom_sym_m0.txt ABSOLUTE
    llProcessRxData0                         0x0000ca9d   Thumb Code     0  bb_rom_sym_m0.txt ABSOLUTE
    llProcessSlaveControlPacket              0x0000cc31   Thumb Code     0  bb_rom_sym_m0.txt ABSOLUTE
    llProcessSlaveControlPacket0             0x0000cc49   Thumb Code     0  bb_rom_sym_m0.txt ABSOLUTE
    llProcessSlaveControlProcedures          0x0000d169   Thumb Code     0  bb_rom_sym_m0.txt ABSOLUTE
    llProcessTxData                          0x0000d4d1   Thumb Code     0  bb_rom_sym_m0.txt ABSOLUTE
    llProcessTxData0                         0x0000d4e9   Thumb Code     0  bb_rom_sym_m0.txt ABSOLUTE
    llReleaseAllConnId                       0x0000d55d   Thumb Code     0  bb_rom_sym_m0.txt ABSOLUTE
    llReleaseConnId                          0x0000d561   Thumb Code     0  bb_rom_sym_m0.txt ABSOLUTE
    llReleaseConnId0                         0x0000d579   Thumb Code     0  bb_rom_sym_m0.txt ABSOLUTE
    llReplaceCtrlPkt                         0x0000d5f5   Thumb Code     0  bb_rom_sym_m0.txt ABSOLUTE
    llResetConnId                            0x0000d60d   Thumb Code     0  bb_rom_sym_m0.txt ABSOLUTE
    llResetRfCounters                        0x0000d6ed   Thumb Code     0  bb_rom_sym_m0.txt ABSOLUTE
    llSecAdvAllow                            0x0000d701   Thumb Code     0  bb_rom_sym_m0.txt ABSOLUTE
    llSetNextDataChan                        0x0000d769   Thumb Code     0  bb_rom_sym_m0.txt ABSOLUTE
    llSetNextPhyMode                         0x0000d839   Thumb Code     0  bb_rom_sym_m0.txt ABSOLUTE
    llSetupAdv                               0x0000d8a9   Thumb Code     0  bb_rom_sym_m0.txt ABSOLUTE
    llSetupAdv0                              0x0000d8c1   Thumb Code     0  bb_rom_sym_m0.txt ABSOLUTE
    llSetupAdvExtIndPDU                      0x0000d949   Thumb Code     0  bb_rom_sym_m0.txt ABSOLUTE
    llSetupAuxAdvIndPDU                      0x0000db4d   Thumb Code     0  bb_rom_sym_m0.txt ABSOLUTE
    llSetupAuxChainIndPDU                    0x0000dda1   Thumb Code     0  bb_rom_sym_m0.txt ABSOLUTE
    llSetupAuxConnectReqPDU                  0x0000df91   Thumb Code     0  bb_rom_sym_m0.txt ABSOLUTE
    llSetupAuxConnectRspPDU                  0x0000e025   Thumb Code     0  bb_rom_sym_m0.txt ABSOLUTE
    llSetupAuxScanRspPDU                     0x0000e09d   Thumb Code     0  bb_rom_sym_m0.txt ABSOLUTE
    llSetupAuxSyncIndPDU                     0x0000e109   Thumb Code     0  bb_rom_sym_m0.txt ABSOLUTE
    llSetupCTEReq                            0x0000e2c1   Thumb Code     0  bb_rom_sym_m0.txt ABSOLUTE
    llSetupCTERsp                            0x0000e38d   Thumb Code     0  bb_rom_sym_m0.txt ABSOLUTE
    llSetupConn                              0x0000e457   Thumb Code     0  bb_rom_sym_m0.txt ABSOLUTE
    llSetupDataLenghtReq                     0x0000e459   Thumb Code     0  bb_rom_sym_m0.txt ABSOLUTE
    llSetupDataLenghtRsp                     0x0000e4d5   Thumb Code     0  bb_rom_sym_m0.txt ABSOLUTE
    llSetupDirectedAdvEvt                    0x0000e551   Thumb Code     0  bb_rom_sym_m0.txt ABSOLUTE
    llSetupEncReq                            0x0000e6a1   Thumb Code     0  bb_rom_sym_m0.txt ABSOLUTE
    llSetupEncRsp                            0x0000e725   Thumb Code     0  bb_rom_sym_m0.txt ABSOLUTE
    llSetupExtAdvEvent                       0x0000e7b1   Thumb Code     0  bb_rom_sym_m0.txt ABSOLUTE
    llSetupFeatureSetReq                     0x0000ec01   Thumb Code     0  bb_rom_sym_m0.txt ABSOLUTE
    llSetupFeatureSetRsp                     0x0000ec63   Thumb Code     0  bb_rom_sym_m0.txt ABSOLUTE
    llSetupInit                              0x0000ecc1   Thumb Code     0  bb_rom_sym_m0.txt ABSOLUTE
    llSetupNextMasterEvent                   0x0000ed39   Thumb Code     0  bb_rom_sym_m0.txt ABSOLUTE
    llSetupNextSlaveEvent                    0x0000ede1   Thumb Code     0  bb_rom_sym_m0.txt ABSOLUTE
    llSetupNextSlaveEvent0                   0x0000edf9   Thumb Code     0  bb_rom_sym_m0.txt ABSOLUTE
    llSetupNonConnectableAdvEvt              0x0000ef65   Thumb Code     0  bb_rom_sym_m0.txt ABSOLUTE
    llSetupPauseEncReq                       0x0000f075   Thumb Code     0  bb_rom_sym_m0.txt ABSOLUTE
    llSetupPauseEncRsp                       0x0000f0c5   Thumb Code     0  bb_rom_sym_m0.txt ABSOLUTE
    llSetupPhyReq                            0x0000f121   Thumb Code     0  bb_rom_sym_m0.txt ABSOLUTE
    llSetupPhyRsp                            0x0000f177   Thumb Code     0  bb_rom_sym_m0.txt ABSOLUTE
    llSetupPhyUpdateInd                      0x0000f1cd   Thumb Code     0  bb_rom_sym_m0.txt ABSOLUTE
    llSetupPrdAdvEvent                       0x0000f239   Thumb Code     0  bb_rom_sym_m0.txt ABSOLUTE
    llSetupPrdScan                           0x0000f3b9   Thumb Code     0  bb_rom_sym_m0.txt ABSOLUTE
    llSetupRejectExtInd                      0x0000f44d   Thumb Code     0  bb_rom_sym_m0.txt ABSOLUTE
    llSetupRejectInd                         0x0000f479   Thumb Code     0  bb_rom_sym_m0.txt ABSOLUTE
    llSetupScan                              0x0000f4a5   Thumb Code     0  bb_rom_sym_m0.txt ABSOLUTE
    llSetupScan0                             0x0000f4bd   Thumb Code     0  bb_rom_sym_m0.txt ABSOLUTE
    llSetupScanInit                          0x0000f54d   Thumb Code     0  bb_rom_sym_m0.txt ABSOLUTE
    llSetupScannableAdvEvt                   0x0000f55d   Thumb Code     0  bb_rom_sym_m0.txt ABSOLUTE
    llSetupSecAdvEvt                         0x0000f66d   Thumb Code     0  bb_rom_sym_m0.txt ABSOLUTE
    llSetupSecConnectableAdvEvt              0x0000f6e9   Thumb Code     0  bb_rom_sym_m0.txt ABSOLUTE
    llSetupSecInit                           0x0000f7c1   Thumb Code     0  bb_rom_sym_m0.txt ABSOLUTE
    llSetupSecNonConnectableAdvEvt           0x0000f875   Thumb Code     0  bb_rom_sym_m0.txt ABSOLUTE
    llSetupSecScan                           0x0000f94d   Thumb Code     0  bb_rom_sym_m0.txt ABSOLUTE
    llSetupSecScannableAdvEvt                0x0000fa19   Thumb Code     0  bb_rom_sym_m0.txt ABSOLUTE
    llSetupStartEncReq                       0x0000faf1   Thumb Code     0  bb_rom_sym_m0.txt ABSOLUTE
    llSetupSyncInfo                          0x0000fb59   Thumb Code     0  bb_rom_sym_m0.txt ABSOLUTE
    llSetupTermInd                           0x0000fc2d   Thumb Code     0  bb_rom_sym_m0.txt ABSOLUTE
    llSetupUndirectedAdvEvt                  0x0000fc91   Thumb Code     0  bb_rom_sym_m0.txt ABSOLUTE
    llSetupUnknownRsp                        0x0000fda5   Thumb Code     0  bb_rom_sym_m0.txt ABSOLUTE
    llSetupUpdateChanReq                     0x0000fdf9   Thumb Code     0  bb_rom_sym_m0.txt ABSOLUTE
    llSetupUpdateParamReq                    0x0000fe6d   Thumb Code     0  bb_rom_sym_m0.txt ABSOLUTE
    llSetupVersionIndReq                     0x0000ff05   Thumb Code     0  bb_rom_sym_m0.txt ABSOLUTE
    llSlaveEvt_TaskAbort                     0x0000ff79   Thumb Code     0  bb_rom_sym_m0.txt ABSOLUTE
    llSlaveEvt_TaskEndOk                     0x0000ff95   Thumb Code     0  bb_rom_sym_m0.txt ABSOLUTE
    llSlaveEvt_TaskEndOk0                    0x0000ffad   Thumb Code     0  bb_rom_sym_m0.txt ABSOLUTE
    llTrxNumAdaptiveConfig                   0x00010181   Thumb Code     0  bb_rom_sym_m0.txt ABSOLUTE
    llValidAccessAddr                        0x0001019b   Thumb Code     0  bb_rom_sym_m0.txt ABSOLUTE
    llWaitUs                                 0x000101e1   Thumb Code     0  bb_rom_sym_m0.txt ABSOLUTE
    llWriteTxData                            0x00010209   Thumb Code     0  bb_rom_sym_m0.txt ABSOLUTE
    ll_CalcRandomAddr                        0x0001028f   Thumb Code     0  bb_rom_sym_m0.txt ABSOLUTE
    ll_ResolveRandomAddrs                    0x000102cd   Thumb Code     0  bb_rom_sym_m0.txt ABSOLUTE
    ll_addTask                               0x00010315   Thumb Code     0  bb_rom_sym_m0.txt ABSOLUTE
    ll_add_adv_task                          0x00010445   Thumb Code     0  bb_rom_sym_m0.txt ABSOLUTE
    ll_add_adv_task_periodic                 0x00010461   Thumb Code     0  bb_rom_sym_m0.txt ABSOLUTE
    ll_adptive_adj_next_time                 0x0001047d   Thumb Code     0  bb_rom_sym_m0.txt ABSOLUTE
    ll_adptive_smart_window                  0x000104fd   Thumb Code     0  bb_rom_sym_m0.txt ABSOLUTE
    ll_adv_scheduler                         0x000105ad   Thumb Code     0  bb_rom_sym_m0.txt ABSOLUTE
    ll_adv_scheduler_periodic                0x000105c9   Thumb Code     0  bb_rom_sym_m0.txt ABSOLUTE
    ll_allocAuxAdvTimeSlot                   0x000105e5   Thumb Code     0  bb_rom_sym_m0.txt ABSOLUTE
    ll_allocAuxAdvTimeSlot_prd               0x00010679   Thumb Code     0  bb_rom_sym_m0.txt ABSOLUTE
    ll_debug_output                          0x00010719   Thumb Code     0  bb_rom_sym_m0.txt ABSOLUTE
    ll_deleteTask                            0x00010731   Thumb Code     0  bb_rom_sym_m0.txt ABSOLUTE
    ll_delete_adv_task                       0x00010765   Thumb Code     0  bb_rom_sym_m0.txt ABSOLUTE
    ll_delete_adv_task_periodic              0x00010781   Thumb Code     0  bb_rom_sym_m0.txt ABSOLUTE
    ll_ext_adv_schedule_next_event           0x0001079d   Thumb Code     0  bb_rom_sym_m0.txt ABSOLUTE
    ll_ext_init_schedule_next_event          0x000107c1   Thumb Code     0  bb_rom_sym_m0.txt ABSOLUTE
    ll_ext_scan_schedule_next_event          0x000107dd   Thumb Code     0  bb_rom_sym_m0.txt ABSOLUTE
    ll_generateExtAdvDid                     0x000107f9   Thumb Code     0  bb_rom_sym_m0.txt ABSOLUTE
    ll_generateTxBuffer                      0x00010801   Thumb Code     0  bb_rom_sym_m0.txt ABSOLUTE
    ll_getFirstAdvChn                        0x000109c1   Thumb Code     0  bb_rom_sym_m0.txt ABSOLUTE
    ll_getRPAListEntry                       0x000109cd   Thumb Code     0  bb_rom_sym_m0.txt ABSOLUTE
    ll_get_next_active_conn                  0x00010a39   Thumb Code     0  bb_rom_sym_m0.txt ABSOLUTE
    ll_get_next_timer                        0x00010aa1   Thumb Code     0  bb_rom_sym_m0.txt ABSOLUTE
    ll_hw_clr_irq                            0x00010add   Thumb Code     0  bb_rom_sym_m0.txt ABSOLUTE
    ll_hw_config                             0x00010aed   Thumb Code     0  bb_rom_sym_m0.txt ABSOLUTE
    ll_hw_get_anchor                         0x00010b6d   Thumb Code     0  bb_rom_sym_m0.txt ABSOLUTE
    ll_hw_get_fsm_status                     0x00010b79   Thumb Code     0  bb_rom_sym_m0.txt ABSOLUTE
    ll_hw_get_iq_RawSample                   0x00010b89   Thumb Code     0  bb_rom_sym_m0.txt ABSOLUTE
    ll_hw_get_irq_status                     0x00010bbd   Thumb Code     0  bb_rom_sym_m0.txt ABSOLUTE
    ll_hw_get_last_ack                       0x00010bcd   Thumb Code     0  bb_rom_sym_m0.txt ABSOLUTE
    ll_hw_get_loop_cycle                     0x00010be9   Thumb Code     0  bb_rom_sym_m0.txt ABSOLUTE
    ll_hw_get_loop_time                      0x00010bf5   Thumb Code     0  bb_rom_sym_m0.txt ABSOLUTE
    ll_hw_get_nAck                           0x00010c01   Thumb Code     0  bb_rom_sym_m0.txt ABSOLUTE
    ll_hw_get_rfifo_depth                    0x00010c11   Thumb Code     0  bb_rom_sym_m0.txt ABSOLUTE
    ll_hw_get_rfifo_info                     0x00010c25   Thumb Code     0  bb_rom_sym_m0.txt ABSOLUTE
    ll_hw_get_rxPkt_CrcErr_num               0x00010c45   Thumb Code     0  bb_rom_sym_m0.txt ABSOLUTE
    ll_hw_get_rxPkt_CrcOk_num                0x00010c55   Thumb Code     0  bb_rom_sym_m0.txt ABSOLUTE
    ll_hw_get_rxPkt_Total_num                0x00010c69   Thumb Code     0  bb_rom_sym_m0.txt ABSOLUTE
    ll_hw_get_rxPkt_num                      0x00010c79   Thumb Code     0  bb_rom_sym_m0.txt ABSOLUTE
    ll_hw_get_rxPkt_stats                    0x00010c85   Thumb Code     0  bb_rom_sym_m0.txt ABSOLUTE
    ll_hw_get_snNesn                         0x00010c9d   Thumb Code     0  bb_rom_sym_m0.txt ABSOLUTE
    ll_hw_get_tfifo_info                     0x00010cad   Thumb Code     0  bb_rom_sym_m0.txt ABSOLUTE
    ll_hw_get_tfifo_wrptr                    0x00010ccd   Thumb Code     0  bb_rom_sym_m0.txt ABSOLUTE
    ll_hw_get_tr_mode                        0x00010cdd   Thumb Code     0  bb_rom_sym_m0.txt ABSOLUTE
    ll_hw_get_txAck                          0x00010ced   Thumb Code     0  bb_rom_sym_m0.txt ABSOLUTE
    ll_hw_go                                 0x00010cf9   Thumb Code     0  bb_rom_sym_m0.txt ABSOLUTE
    ll_hw_ign_rfifo                          0x00010df9   Thumb Code     0  bb_rom_sym_m0.txt ABSOLUTE
    ll_hw_process_RTO                        0x00010e05   Thumb Code     0  bb_rom_sym_m0.txt ABSOLUTE
    ll_hw_read_rfifo                         0x00010e6d   Thumb Code     0  bb_rom_sym_m0.txt ABSOLUTE
    ll_hw_read_rfifo_pplus                   0x00010ee9   Thumb Code     0  bb_rom_sym_m0.txt ABSOLUTE
    ll_hw_read_rfifo_zb                      0x00010f51   Thumb Code     0  bb_rom_sym_m0.txt ABSOLUTE
    ll_hw_read_tfifo_packet                  0x00010fad   Thumb Code     0  bb_rom_sym_m0.txt ABSOLUTE
    ll_hw_read_tfifo_rtlp                    0x00010ff5   Thumb Code     0  bb_rom_sym_m0.txt ABSOLUTE
    ll_hw_read_tfifo_rtlp0                   0x0001100d   Thumb Code     0  bb_rom_sym_m0.txt ABSOLUTE
    ll_hw_rst_rfifo                          0x000110b1   Thumb Code     0  bb_rom_sym_m0.txt ABSOLUTE
    ll_hw_rst_tfifo                          0x000110e9   Thumb Code     0  bb_rom_sym_m0.txt ABSOLUTE
    ll_hw_set_ant_pattern                    0x000110f5   Thumb Code     0  bb_rom_sym_m0.txt ABSOLUTE
    ll_hw_set_ant_switch_mode                0x00011101   Thumb Code     0  bb_rom_sym_m0.txt ABSOLUTE
    ll_hw_set_ant_switch_timing              0x00011115   Thumb Code     0  bb_rom_sym_m0.txt ABSOLUTE
    ll_hw_set_crc_fmt                        0x0001112d   Thumb Code     0  bb_rom_sym_m0.txt ABSOLUTE
    ll_hw_set_cte_rxSupp                     0x0001113d   Thumb Code     0  bb_rom_sym_m0.txt ABSOLUTE
    ll_hw_set_cte_txSupp                     0x00011155   Thumb Code     0  bb_rom_sym_m0.txt ABSOLUTE
    ll_hw_set_empty_head                     0x00011169   Thumb Code     0  bb_rom_sym_m0.txt ABSOLUTE
    ll_hw_set_irq                            0x00011175   Thumb Code     0  bb_rom_sym_m0.txt ABSOLUTE
    ll_hw_set_loop_nack_num                  0x00011181   Thumb Code     0  bb_rom_sym_m0.txt ABSOLUTE
    ll_hw_set_loop_timeout                   0x0001118d   Thumb Code     0  bb_rom_sym_m0.txt ABSOLUTE
    ll_hw_set_pplus_pktfmt                   0x000111a1   Thumb Code     0  bb_rom_sym_m0.txt ABSOLUTE
    ll_hw_set_rtlp                           0x000111cd   Thumb Code     0  bb_rom_sym_m0.txt ABSOLUTE
    ll_hw_set_rtlp_1st                       0x0001121d   Thumb Code     0  bb_rom_sym_m0.txt ABSOLUTE
    ll_hw_set_rtx                            0x00011265   Thumb Code     0  bb_rom_sym_m0.txt ABSOLUTE
    ll_hw_set_rx_timeout                     0x00011279   Thumb Code     0  bb_rom_sym_m0.txt ABSOLUTE
    ll_hw_set_rx_timeout_1st                 0x00011285   Thumb Code     0  bb_rom_sym_m0.txt ABSOLUTE
    ll_hw_set_rx_tx_interval                 0x00011291   Thumb Code     0  bb_rom_sym_m0.txt ABSOLUTE
    ll_hw_set_srx                            0x000112a5   Thumb Code     0  bb_rom_sym_m0.txt ABSOLUTE
    ll_hw_set_stx                            0x000112b9   Thumb Code     0  bb_rom_sym_m0.txt ABSOLUTE
    ll_hw_set_tfifo_space                    0x000112cd   Thumb Code     0  bb_rom_sym_m0.txt ABSOLUTE
    ll_hw_set_timing                         0x000112e5   Thumb Code     0  bb_rom_sym_m0.txt ABSOLUTE
    ll_hw_set_trlp                           0x00011381   Thumb Code     0  bb_rom_sym_m0.txt ABSOLUTE
    ll_hw_set_trx                            0x000113c9   Thumb Code     0  bb_rom_sym_m0.txt ABSOLUTE
    ll_hw_set_trx_settle                     0x000113dd   Thumb Code     0  bb_rom_sym_m0.txt ABSOLUTE
    ll_hw_set_tx_rx_interval                 0x000113f1   Thumb Code     0  bb_rom_sym_m0.txt ABSOLUTE
    ll_hw_set_tx_rx_release                  0x00011405   Thumb Code     0  bb_rom_sym_m0.txt ABSOLUTE
    ll_hw_trigger                            0x00011421   Thumb Code     0  bb_rom_sym_m0.txt ABSOLUTE
    ll_hw_trx_settle_config                  0x00011445   Thumb Code     0  bb_rom_sym_m0.txt ABSOLUTE
    ll_hw_tx2rx_timing_config                0x00011489   Thumb Code     0  bb_rom_sym_m0.txt ABSOLUTE
    ll_hw_update                             0x000114dd   Thumb Code     0  bb_rom_sym_m0.txt ABSOLUTE
    ll_hw_update_rtlp_mode                   0x00011539   Thumb Code     0  bb_rom_sym_m0.txt ABSOLUTE
    ll_hw_update_trlp_mode                   0x00011579   Thumb Code     0  bb_rom_sym_m0.txt ABSOLUTE
    ll_hw_write_tfifo                        0x000115c1   Thumb Code     0  bb_rom_sym_m0.txt ABSOLUTE
    ll_isAddrInWhiteList                     0x00011649   Thumb Code     0  bb_rom_sym_m0.txt ABSOLUTE
    ll_isFirstAdvChn                         0x000116a9   Thumb Code     0  bb_rom_sym_m0.txt ABSOLUTE
    ll_isIrkAllZero                          0x000116c7   Thumb Code     0  bb_rom_sym_m0.txt ABSOLUTE
    ll_isLegacyAdv                           0x000116dd   Thumb Code     0  bb_rom_sym_m0.txt ABSOLUTE
    ll_parseExtHeader                        0x000116ed   Thumb Code     0  bb_rom_sym_m0.txt ABSOLUTE
    ll_prd_adv_schedule_next_event           0x000117a9   Thumb Code     0  bb_rom_sym_m0.txt ABSOLUTE
    ll_prd_scan_schedule_next_event          0x000117cd   Thumb Code     0  bb_rom_sym_m0.txt ABSOLUTE
    ll_processBasicIRQ                       0x000117e9   Thumb Code     0  bb_rom_sym_m0.txt ABSOLUTE
    ll_processExtAdvIRQ                      0x00013401   Thumb Code     0  bb_rom_sym_m0.txt ABSOLUTE
    ll_processExtInitIRQ                     0x00013405   Thumb Code     0  bb_rom_sym_m0.txt ABSOLUTE
    ll_processExtScanIRQ                     0x00013409   Thumb Code     0  bb_rom_sym_m0.txt ABSOLUTE
    ll_processMissMasterEvt                  0x0001340d   Thumb Code     0  bb_rom_sym_m0.txt ABSOLUTE
    ll_processMissSlaveEvt                   0x000134ed   Thumb Code     0  bb_rom_sym_m0.txt ABSOLUTE
    ll_processPrdAdvIRQ                      0x000135f5   Thumb Code     0  bb_rom_sym_m0.txt ABSOLUTE
    ll_processPrdScanIRQ                     0x000135f9   Thumb Code     0  bb_rom_sym_m0.txt ABSOLUTE
    ll_readLocalIRK                          0x000135fd   Thumb Code     0  bb_rom_sym_m0.txt ABSOLUTE
    ll_readPeerIRK                           0x00013661   Thumb Code     0  bb_rom_sym_m0.txt ABSOLUTE
    ll_read_rxfifo                           0x000136c5   Thumb Code     0  bb_rom_sym_m0.txt ABSOLUTE
    ll_read_rxfifo0                          0x000136cd   Thumb Code     0  bb_rom_sym_m0.txt ABSOLUTE
    ll_schedule_next_event                   0x00013761   Thumb Code     0  bb_rom_sym_m0.txt ABSOLUTE
    ll_scheduler                             0x00013771   Thumb Code     0  bb_rom_sym_m0.txt ABSOLUTE
    ll_scheduler0                            0x00013789   Thumb Code     0  bb_rom_sym_m0.txt ABSOLUTE
    ll_updateAuxAdvTimeSlot                  0x00013a11   Thumb Code     0  bb_rom_sym_m0.txt ABSOLUTE
    ll_updateExtAdvRemainderTime             0x00013a39   Thumb Code     0  bb_rom_sym_m0.txt ABSOLUTE
    log_clr_putc                             0x00013ab9   Thumb Code     0  bb_rom_sym_m0.txt ABSOLUTE
    log_debug_level                          0x00013ac5   Thumb Code     0  bb_rom_sym_m0.txt ABSOLUTE
    log_get_debug_level                      0x00013ad9   Thumb Code     0  bb_rom_sym_m0.txt ABSOLUTE
    log_printf                               0x00013ae5   Thumb Code     0  bb_rom_sym_m0.txt ABSOLUTE
    log_set_putc                             0x00013b05   Thumb Code     0  bb_rom_sym_m0.txt ABSOLUTE
    log_vsprintf                             0x00013b11   Thumb Code     0  bb_rom_sym_m0.txt ABSOLUTE
    move_to_master_function                  0x00013f09   Thumb Code     0  bb_rom_sym_m0.txt ABSOLUTE
    move_to_master_function0                 0x00013f21   Thumb Code     0  bb_rom_sym_m0.txt ABSOLUTE
    move_to_slave_function                   0x0001406d   Thumb Code     0  bb_rom_sym_m0.txt ABSOLUTE
    move_to_slave_function0                  0x00014085   Thumb Code     0  bb_rom_sym_m0.txt ABSOLUTE
    osalAddTimer                             0x00014439   Thumb Code     0  bb_rom_sym_m0.txt ABSOLUTE
    osalDeleteTimer                          0x000144a9   Thumb Code     0  bb_rom_sym_m0.txt ABSOLUTE
    osalFindTimer                            0x000144b5   Thumb Code     0  bb_rom_sym_m0.txt ABSOLUTE
    osalTimeUpdate                           0x000144d5   Thumb Code     0  bb_rom_sym_m0.txt ABSOLUTE
    osalTimeUpdate1                          0x00014541   Thumb Code     0  bb_rom_sym_m0.txt ABSOLUTE
    osalTimerInit                            0x0001457d   Thumb Code     0  bb_rom_sym_m0.txt ABSOLUTE
    osalTimerUpdate                          0x00014589   Thumb Code     0  bb_rom_sym_m0.txt ABSOLUTE
    osal_CbTimerInit                         0x00014621   Thumb Code     0  bb_rom_sym_m0.txt ABSOLUTE
    osal_CbTimerProcessEvent                 0x00014641   Thumb Code     0  bb_rom_sym_m0.txt ABSOLUTE
    osal_CbTimerStart                        0x000146a9   Thumb Code     0  bb_rom_sym_m0.txt ABSOLUTE
    osal_CbTimerStop                         0x00014711   Thumb Code     0  bb_rom_sym_m0.txt ABSOLUTE
    osal_CbTimerUpdate                       0x00014751   Thumb Code     0  bb_rom_sym_m0.txt ABSOLUTE
    osal_ConvertUTCSecs                      0x000147a1   Thumb Code     0  bb_rom_sym_m0.txt ABSOLUTE
    osal_ConvertUTCTime                      0x00014841   Thumb Code     0  bb_rom_sym_m0.txt ABSOLUTE
    osal_GetSystemClock                      0x00014949   Thumb Code     0  bb_rom_sym_m0.txt ABSOLUTE
    osal_bm_adjust_header                    0x00014955   Thumb Code     0  bb_rom_sym_m0.txt ABSOLUTE
    osal_bm_adjust_tail                      0x0001497d   Thumb Code     0  bb_rom_sym_m0.txt ABSOLUTE
    osal_bm_alloc                            0x000149a9   Thumb Code     0  bb_rom_sym_m0.txt ABSOLUTE
    osal_bm_free                             0x000149d9   Thumb Code     0  bb_rom_sym_m0.txt ABSOLUTE
    osal_buffer_uint24                       0x00014a21   Thumb Code     0  bb_rom_sym_m0.txt ABSOLUTE
    osal_buffer_uint32                       0x00014a2f   Thumb Code     0  bb_rom_sym_m0.txt ABSOLUTE
    osal_build_uint16                        0x00014a41   Thumb Code     0  bb_rom_sym_m0.txt ABSOLUTE
    osal_build_uint32                        0x00014a4d   Thumb Code     0  bb_rom_sym_m0.txt ABSOLUTE
    osal_clear_event                         0x00014a89   Thumb Code     0  bb_rom_sym_m0.txt ABSOLUTE
    osal_getClock                            0x00014abd   Thumb Code     0  bb_rom_sym_m0.txt ABSOLUTE
    osal_get_timeoutEx                       0x00014ac9   Thumb Code     0  bb_rom_sym_m0.txt ABSOLUTE
    osal_init_system                         0x00014aed   Thumb Code     0  bb_rom_sym_m0.txt ABSOLUTE
    osal_isbufset                            0x00014b1d   Thumb Code     0  bb_rom_sym_m0.txt ABSOLUTE
    osal_mem_alloc                           0x00014b3d   Thumb Code     0  bb_rom_sym_m0.txt ABSOLUTE
    osal_mem_free                            0x00014c01   Thumb Code     0  bb_rom_sym_m0.txt ABSOLUTE
    osal_mem_init                            0x00014c25   Thumb Code     0  bb_rom_sym_m0.txt ABSOLUTE
    osal_mem_kick                            0x00014c8d   Thumb Code     0  bb_rom_sym_m0.txt ABSOLUTE
    osal_mem_set_heap                        0x00014cb5   Thumb Code     0  bb_rom_sym_m0.txt ABSOLUTE
    osal_memcmp                              0x00014ccd   Thumb Code     0  bb_rom_sym_m0.txt ABSOLUTE
    osal_memcpy                              0x00014ce9   Thumb Code     0  bb_rom_sym_m0.txt ABSOLUTE
    osal_memdup                              0x00014cf9   Thumb Code     0  bb_rom_sym_m0.txt ABSOLUTE
    osal_memset                              0x00014d15   Thumb Code     0  bb_rom_sym_m0.txt ABSOLUTE
    osal_msg_allocate                        0x00014d1d   Thumb Code     0  bb_rom_sym_m0.txt ABSOLUTE
    osal_msg_deallocate                      0x00014d43   Thumb Code     0  bb_rom_sym_m0.txt ABSOLUTE
    osal_msg_dequeue                         0x00014d65   Thumb Code     0  bb_rom_sym_m0.txt ABSOLUTE
    osal_msg_enqueue                         0x00014d91   Thumb Code     0  bb_rom_sym_m0.txt ABSOLUTE
    osal_msg_enqueue_max                     0x00014dc3   Thumb Code     0  bb_rom_sym_m0.txt ABSOLUTE
    osal_msg_extract                         0x00014e6d   Thumb Code     0  bb_rom_sym_m0.txt ABSOLUTE
    osal_msg_find                            0x00014e9d   Thumb Code     0  bb_rom_sym_m0.txt ABSOLUTE
    osal_msg_push                            0x00014ed1   Thumb Code     0  bb_rom_sym_m0.txt ABSOLUTE
    osal_msg_push_front                      0x00014eeb   Thumb Code     0  bb_rom_sym_m0.txt ABSOLUTE
    osal_msg_receive                         0x00014ef5   Thumb Code     0  bb_rom_sym_m0.txt ABSOLUTE
    osal_msg_send                            0x00014f59   Thumb Code     0  bb_rom_sym_m0.txt ABSOLUTE
    osal_next_timeout                        0x00014f7d   Thumb Code     0  bb_rom_sym_m0.txt ABSOLUTE
    osal_pwrmgr_device                       0x00014fa5   Thumb Code     0  bb_rom_sym_m0.txt ABSOLUTE
    osal_pwrmgr_init                         0x00014fb1   Thumb Code     0  bb_rom_sym_m0.txt ABSOLUTE
    osal_pwrmgr_powerconserve                0x00014fc1   Thumb Code     0  bb_rom_sym_m0.txt ABSOLUTE
    osal_pwrmgr_powerconserve0               0x00014fd9   Thumb Code     0  bb_rom_sym_m0.txt ABSOLUTE
    osal_pwrmgr_task_state                   0x000150f9   Thumb Code     0  bb_rom_sym_m0.txt ABSOLUTE
    osal_rand                                0x00015129   Thumb Code     0  bb_rom_sym_m0.txt ABSOLUTE
    osal_revmemcpy                           0x00015145   Thumb Code     0  bb_rom_sym_m0.txt ABSOLUTE
    osal_run_system                          0x00015159   Thumb Code     0  bb_rom_sym_m0.txt ABSOLUTE
    osal_self                                0x000151f5   Thumb Code     0  bb_rom_sym_m0.txt ABSOLUTE
    osal_setClock                            0x00015201   Thumb Code     0  bb_rom_sym_m0.txt ABSOLUTE
    osal_set_event                           0x0001520d   Thumb Code     0  bb_rom_sym_m0.txt ABSOLUTE
    osal_start_reload_timer                  0x00015259   Thumb Code     0  bb_rom_sym_m0.txt ABSOLUTE
    osal_start_system                        0x00015285   Thumb Code     0  bb_rom_sym_m0.txt ABSOLUTE
    osal_start_timerEx                       0x0001528b   Thumb Code     0  bb_rom_sym_m0.txt ABSOLUTE
    osal_stop_timerEx                        0x000152b3   Thumb Code     0  bb_rom_sym_m0.txt ABSOLUTE
    osal_strlen                              0x000152dd   Thumb Code     0  bb_rom_sym_m0.txt ABSOLUTE
    osal_timer_num_active                    0x000152e5   Thumb Code     0  bb_rom_sym_m0.txt ABSOLUTE
    phy_sec_app_key                          0x00015315   Thumb Code     0  bb_rom_sym_m0.txt ABSOLUTE
    phy_sec_decrypt                          0x0001531d   Thumb Code     0  bb_rom_sym_m0.txt ABSOLUTE
    phy_sec_efuse_lock                       0x0001532d   Thumb Code     0  bb_rom_sym_m0.txt ABSOLUTE
    phy_sec_encrypt                          0x00015339   Thumb Code     0  bb_rom_sym_m0.txt ABSOLUTE
    phy_sec_init                             0x00015349   Thumb Code     0  bb_rom_sym_m0.txt ABSOLUTE
    phy_sec_key_valid                        0x0001540d   Thumb Code     0  bb_rom_sym_m0.txt ABSOLUTE
    prog_process_data                        0x00015b19   Thumb Code     0  bb_rom_sym_m0.txt ABSOLUTE
    prog_uart_command                        0x00015c51   Thumb Code     0  bb_rom_sym_m0.txt ABSOLUTE
    prog_uart_fct_command                    0x00015c71   Thumb Code     0  bb_rom_sym_m0.txt ABSOLUTE
    prog_uart_handle                         0x00015c8d   Thumb Code     0  bb_rom_sym_m0.txt ABSOLUTE
    read_LL_remainder_time                   0x00015cbd   Thumb Code     0  bb_rom_sym_m0.txt ABSOLUTE
    read_current_fine_time                   0x00015cc9   Thumb Code     0  bb_rom_sym_m0.txt ABSOLUTE
    read_ll_adv_remainder_time               0x00015cf1   Thumb Code     0  bb_rom_sym_m0.txt ABSOLUTE
    reset_conn_buf                           0x00015cfd   Thumb Code     0  bb_rom_sym_m0.txt ABSOLUTE
    rom_board_init                           0x00016a09   Thumb Code     0  bb_rom_sym_m0.txt ABSOLUTE
    rtc_clear                                0x00016ab5   Thumb Code     0  bb_rom_sym_m0.txt ABSOLUTE
    rtc_config_prescale                      0x00016ad1   Thumb Code     0  bb_rom_sym_m0.txt ABSOLUTE
    rtc_get_counter                          0x00016b15   Thumb Code     0  bb_rom_sym_m0.txt ABSOLUTE
    rtc_start                                0x00016b25   Thumb Code     0  bb_rom_sym_m0.txt ABSOLUTE
    rtc_stop                                 0x00016b35   Thumb Code     0  bb_rom_sym_m0.txt ABSOLUTE
    setSleepMode                             0x00016b45   Thumb Code     0  bb_rom_sym_m0.txt ABSOLUTE
    set_access_address                       0x00016b51   Thumb Code     0  bb_rom_sym_m0.txt ABSOLUTE
    set_channel                              0x00016b5d   Thumb Code     0  bb_rom_sym_m0.txt ABSOLUTE
    set_crc_seed                             0x00016b9d   Thumb Code     0  bb_rom_sym_m0.txt ABSOLUTE
    set_gpio_pull_down_ate                   0x00016bb5   Thumb Code     0  bb_rom_sym_m0.txt ABSOLUTE
    set_gpio_pull_up_ate                     0x00016bcb   Thumb Code     0  bb_rom_sym_m0.txt ABSOLUTE
    set_int                                  0x00016be1   Thumb Code     0  bb_rom_sym_m0.txt ABSOLUTE
    set_max_length                           0x00016bed   Thumb Code     0  bb_rom_sym_m0.txt ABSOLUTE
    set_sleep_flag                           0x00016c01   Thumb Code     0  bb_rom_sym_m0.txt ABSOLUTE
    set_timer                                0x00016c2d   Thumb Code     0  bb_rom_sym_m0.txt ABSOLUTE
    set_whiten_seed                          0x00016cc9   Thumb Code     0  bb_rom_sym_m0.txt ABSOLUTE
    spif_cmd                                 0x00016d49   Thumb Code     0  bb_rom_sym_m0.txt ABSOLUTE
    spif_config                              0x00016dc5   Thumb Code     0  bb_rom_sym_m0.txt ABSOLUTE
    spif_erase_all                           0x00016ea1   Thumb Code     0  bb_rom_sym_m0.txt ABSOLUTE
    spif_erase_block64                       0x00016ed1   Thumb Code     0  bb_rom_sym_m0.txt ABSOLUTE
    spif_erase_chip                          0x00016f55   Thumb Code     0  bb_rom_sym_m0.txt ABSOLUTE
    spif_erase_sector                        0x00016fa9   Thumb Code     0  bb_rom_sym_m0.txt ABSOLUTE
    spif_flash_size                          0x00017029   Thumb Code     0  bb_rom_sym_m0.txt ABSOLUTE
    spif_flash_status_reg_0                  0x0001703d   Thumb Code     0  bb_rom_sym_m0.txt ABSOLUTE
    spif_flash_status_reg_1                  0x00017047   Thumb Code     0  bb_rom_sym_m0.txt ABSOLUTE
    spif_init                                0x00017051   Thumb Code     0  bb_rom_sym_m0.txt ABSOLUTE
    spif_rddata                              0x0001713d   Thumb Code     0  bb_rom_sym_m0.txt ABSOLUTE
    spif_read                                0x00017165   Thumb Code     0  bb_rom_sym_m0.txt ABSOLUTE
    spif_read_dma                            0x0001717d   Thumb Code     0  bb_rom_sym_m0.txt ABSOLUTE
    spif_read_id                             0x00017209   Thumb Code     0  bb_rom_sym_m0.txt ABSOLUTE
    spif_release_deep_sleep                  0x000172cd   Thumb Code     0  bb_rom_sym_m0.txt ABSOLUTE
    spif_set_deep_sleep                      0x00017349   Thumb Code     0  bb_rom_sym_m0.txt ABSOLUTE
    spif_wrdata                              0x0001736d   Thumb Code     0  bb_rom_sym_m0.txt ABSOLUTE
    spif_write                               0x00017395   Thumb Code     0  bb_rom_sym_m0.txt ABSOLUTE
    spif_write_dma                           0x0001744d   Thumb Code     0  bb_rom_sym_m0.txt ABSOLUTE
    spif_write_protect                       0x000174f9   Thumb Code     0  bb_rom_sym_m0.txt ABSOLUTE
    sram_ret_patch                           0x00017591   Thumb Code     0  bb_rom_sym_m0.txt ABSOLUTE
    update_rx_read_ptr                       0x00017609   Thumb Code     0  bb_rom_sym_m0.txt ABSOLUTE
    update_rx_write_ptr                      0x00017635   Thumb Code     0  bb_rom_sym_m0.txt ABSOLUTE
    update_tx_read_ptr                       0x00017659   Thumb Code     0  bb_rom_sym_m0.txt ABSOLUTE
    update_tx_write_ptr                      0x00017685   Thumb Code     0  bb_rom_sym_m0.txt ABSOLUTE
    wakeupProcess                            0x000176a9   Thumb Code     0  bb_rom_sym_m0.txt ABSOLUTE
    wakeupProcess0                           0x000176c5   Thumb Code     0  bb_rom_sym_m0.txt ABSOLUTE
    wakeup_init                              0x000178a5   Thumb Code     0  bb_rom_sym_m0.txt ABSOLUTE
    wakeup_init0                             0x000178bd   Thumb Code     0  bb_rom_sym_m0.txt ABSOLUTE
    zigbee_crc16_gen                         0x0001798d   Thumb Code     0  bb_rom_sym_m0.txt ABSOLUTE
    g_hclk_table                             0x00017be0   Data           0  bb_rom_sym_m0.txt ABSOLUTE
    supportedCmdsTable                       0x00017c00   Data           0  bb_rom_sym_m0.txt ABSOLUTE
    hciCmdTable                              0x00017c44   Data           0  bb_rom_sym_m0.txt ABSOLUTE
    SCA                                      0x00017c4c   Data           0  bb_rom_sym_m0.txt ABSOLUTE
    Long Thumb to Thumb Veneer to drv_disable_irq 0x11020001   Thumb Code    12  anon$$obj.o(Veneer$$Code)
    Long Thumb to Thumb Veneer to LL_CreateConnCancel0 0x1102000d   Thumb Code    12  anon$$obj.o(Veneer$$Code)
    Long Thumb to Thumb Veneer to drv_enable_irq 0x11020019   Thumb Code    12  anon$$obj.o(Veneer$$Code)
    Long Thumb to Thumb Veneer to _rom_efuse_version_init 0x11020025   Thumb Code    12  anon$$obj.o(Veneer$$Code)
    Long Thumb to Thumb Veneer to global_config_hclk_related 0x11020031   Thumb Code    12  anon$$obj.o(Veneer$$Code)
    Long Thumb to Thumb Veneer to enableSleep 0x1102003d   Thumb Code    12  anon$$obj.o(Veneer$$Code)
    Long Thumb to Thumb Veneer to setSleepMode 0x11020049   Thumb Code    12  anon$$obj.o(Veneer$$Code)
    Long Thumb to Thumb Veneer to dbg_printf 0x11020055   Thumb Code    12  anon$$obj.o(Veneer$$Code)
    Long Thumb to Thumb Veneer to __aeabi_memclr4 0x11020061   Thumb Code    12  anon$$obj.o(Veneer$$Code)
    Long Thumb to Thumb Veneer to hal_pwrmgr_register 0x1102006d   Thumb Code    12  anon$$obj.o(Veneer$$Code)
    Long Thumb to Thumb Veneer to hal_clk_reset 0x11020079   Thumb Code    12  anon$$obj.o(Veneer$$Code)
    Long Thumb to Thumb Veneer to hal_clk_gate_disable 0x11020085   Thumb Code    12  anon$$obj.o(Veneer$$Code)
    Long Thumb to Thumb Veneer to hal_pwrmgr_unlock 0x11020091   Thumb Code    12  anon$$obj.o(Veneer$$Code)
    Long Thumb to Thumb Veneer to hal_clk_gate_enable 0x1102009d   Thumb Code    12  anon$$obj.o(Veneer$$Code)
    Long Thumb to Thumb Veneer to __aeabi_memcpy 0x110200a9   Thumb Code    12  anon$$obj.o(Veneer$$Code)
    Long Thumb to Thumb Veneer to hal_pwrmgr_unregister 0x110200b5   Thumb Code    12  anon$$obj.o(Veneer$$Code)
    Long Thumb to Thumb Veneer to hal_pwrmgr_lock 0x110200c1   Thumb Code    12  anon$$obj.o(Veneer$$Code)
    LL_CreateConnCancel1                     0x110200cd   Thumb Code    30  patch.o(_section_xip_code_)
    global_config_maxscanrsplen              0x110200eb   Thumb Code    12  patch.o(_section_xip_code_)
    init_config                              0x110200f7   Thumb Code   540  patch.o(_section_xip_code_)
    clear_adcc_cfg                           0x110205d1   Thumb Code    20  adc.o(i.clear_adcc_cfg)
    hal_ADC_IRQHandler                       0x11020611   Thumb Code   178  adc.o(i.hal_ADC_IRQHandler)
    hal_ADC_VOICE_IRQHandler                 0x110206d5   Thumb Code   158  voice.o(i.hal_ADC_VOICE_IRQHandler)
    hal_GPIO_IRQHandler                      0x110208b9   Thumb Code    20  gpio.o(i.hal_GPIO_IRQHandler)
    hal_adc_init                             0x110208d1   Thumb Code    24  adc.o(i.hal_adc_init)
    hal_adc_stop                             0x110208f1   Thumb Code   146  adc.o(i.hal_adc_stop)
    hal_gpio_cfg_analog_io                   0x1102099d   Thumb Code    52  gpio.o(i.hal_gpio_cfg_analog_io)
    hal_gpio_fmux                            0x110209d5   Thumb Code    26  gpio.o(i.hal_gpio_fmux)
    hal_gpio_fmux_set                        0x110209f5   Thumb Code    62  gpio.o(i.hal_gpio_fmux_set)
    hal_gpio_init                            0x11020a39   Thumb Code    66  gpio.o(i.hal_gpio_init)
    hal_gpio_pin2pin3_control                0x11020ad1   Thumb Code    24  gpio.o(i.hal_gpio_pin2pin3_control)
    hal_gpio_pin_init                        0x11020aed   Thumb Code   108  gpio.o(i.hal_gpio_pin_init)
    hal_gpio_pull_set                        0x11020b61   Thumb Code    76  gpio.o(i.hal_gpio_pull_set)
    hal_gpio_read                            0x11020bb5   Thumb Code    38  gpio.o(i.hal_gpio_read)
    hal_gpioin_disable                       0x11020be1   Thumb Code    62  gpio.o(i.hal_gpioin_disable)
    hal_gpioin_enable                        0x11020c29   Thumb Code   102  gpio.o(i.hal_gpioin_enable)
    hal_gpioin_register                      0x11020d1d   Thumb Code    50  gpio.o(i.hal_gpioin_register)
    hal_poilling_adc_stop                    0x11020d5d   Thumb Code   112  adc.o(i.hal_poilling_adc_stop)
    hal_voice_amic_gain                      0x11020de9   Thumb Code    20  voice.o(i.hal_voice_amic_gain)
    hal_voice_amic_mode                      0x11020e01   Thumb Code    48  voice.o(i.hal_voice_amic_mode)
    hal_voice_amute_off                      0x11020e39   Thumb Code    12  voice.o(i.hal_voice_amute_off)
    hal_voice_amute_on                       0x11020e49   Thumb Code    12  voice.o(i.hal_voice_amute_on)
    hal_voice_config                         0x11020e59   Thumb Code   268  voice.o(i.hal_voice_config)
    hal_voice_deinit                         0x11020f71   Thumb Code    18  voice.o(i.hal_voice_deinit)
    hal_voice_disable                        0x11020f85   Thumb Code    26  voice.o(i.hal_voice_disable)
    hal_voice_dmic_mode                      0x11020fa5   Thumb Code    12  voice.o(i.hal_voice_dmic_mode)
    hal_voice_dmic_open                      0x11020fb5   Thumb Code    20  voice.o(i.hal_voice_dmic_open)
    hal_voice_enable                         0x11020fc9   Thumb Code    20  voice.o(i.hal_voice_enable)
    hal_voice_encode                         0x11020fe1   Thumb Code    18  voice.o(i.hal_voice_encode)
    hal_voice_gain                           0x11020ff9   Thumb Code    18  voice.o(i.hal_voice_gain)
    hal_voice_init                           0x11021011   Thumb Code    26  voice.o(i.hal_voice_init)
    hal_voice_rate                           0x11021035   Thumb Code    18  voice.o(i.hal_voice_rate)
    hal_voice_start                          0x1102104d   Thumb Code   106  voice.o(i.hal_voice_start)
    hal_voice_stop                           0x110210d1   Thumb Code    68  voice.o(i.hal_voice_stop)
    c_gpio_index                             0x110211c4   Data          23  gpio.o(.constdata)
    c_gpio_pull                              0x110211db   Data          69  gpio.o(.constdata)
    jump_table_base                          0x1fff0000   Data        1024  jump_table.o(jump_table_mem_area)
    global_config                            0x1fff0400   Data        1024  jump_table.o(global_config_area)
    hclk_per_us                              0x1fff0818   Data           0  bb_rom_sym_m0.txt ABSOLUTE
    hclk_per_us_shift                        0x1fff081c   Data           0  bb_rom_sym_m0.txt ABSOLUTE
    s_prog_time_save                         0x1fff0828   Data           0  bb_rom_sym_m0.txt ABSOLUTE
    s_prog_timeout                           0x1fff082c   Data           0  bb_rom_sym_m0.txt ABSOLUTE
    DFL_ENTRY_BASE                           0x1fff0830   Data           0  bb_rom_sym_m0.txt ABSOLUTE
    receive_timeout_flag                     0x1fff0850   Data           0  bb_rom_sym_m0.txt ABSOLUTE
    osal_sys_tick                            0x1fff0860   Data           0  bb_rom_sym_m0.txt ABSOLUTE
    g_timer4_irq_pending_time                0x1fff0864   Data           0  bb_rom_sym_m0.txt ABSOLUTE
    g_hclk                                   0x1fff0874   Data           0  bb_rom_sym_m0.txt ABSOLUTE
    m_in_critical_region                     0x1fff0878   Data           0  bb_rom_sym_m0.txt ABSOLUTE
    s_rom_debug_level                        0x1fff0888   Data           0  bb_rom_sym_m0.txt ABSOLUTE
    s_spif_ctx                               0x1fff0894   Data           0  bb_rom_sym_m0.txt ABSOLUTE
    osal_qHead                               0x1fff08b8   Data           0  bb_rom_sym_m0.txt ABSOLUTE
    baseTaskID                               0x1fff08c0   Data           0  bb_rom_sym_m0.txt ABSOLUTE
    OSAL_timeSeconds                         0x1fff08cc   Data           0  bb_rom_sym_m0.txt ABSOLUTE
    osalMemStat                              0x1fff08d0   Data           0  bb_rom_sym_m0.txt ABSOLUTE
    theHeap                                  0x1fff08d4   Data           0  bb_rom_sym_m0.txt ABSOLUTE
    ff1                                      0x1fff08d8   Data           0  bb_rom_sym_m0.txt ABSOLUTE
    heapSize                                 0x1fff08dc   Data           0  bb_rom_sym_m0.txt ABSOLUTE
    ll_remain_time                           0x1fff08e4   Data           0  bb_rom_sym_m0.txt ABSOLUTE
    pwrmgr_attribute                         0x1fff08e8   Data           0  bb_rom_sym_m0.txt ABSOLUTE
    timerHead                                0x1fff08f0   Data           0  bb_rom_sym_m0.txt ABSOLUTE
    hciPTMenabled                            0x1fff08f8   Data           0  bb_rom_sym_m0.txt ABSOLUTE
    ctrlToHostEnable                         0x1fff08f9   Data           0  bb_rom_sym_m0.txt ABSOLUTE
    numHostBufs                              0x1fff08fa   Data           0  bb_rom_sym_m0.txt ABSOLUTE
    hciCtrlCmdToken                          0x1fff08fc   Data           0  bb_rom_sym_m0.txt ABSOLUTE
    bleEvtMask                               0x1fff0900   Data           0  bb_rom_sym_m0.txt ABSOLUTE
    pHciEvtMask                              0x1fff0904   Data           0  bb_rom_sym_m0.txt ABSOLUTE
    hciTaskID                                0x1fff090c   Data           0  bb_rom_sym_m0.txt ABSOLUTE
    hciTestTaskID                            0x1fff090d   Data           0  bb_rom_sym_m0.txt ABSOLUTE
    hciGapTaskID                             0x1fff090e   Data           0  bb_rom_sym_m0.txt ABSOLUTE
    hciL2capTaskID                           0x1fff090f   Data           0  bb_rom_sym_m0.txt ABSOLUTE
    hciSmpTaskID                             0x1fff0910   Data           0  bb_rom_sym_m0.txt ABSOLUTE
    hciExtTaskID                             0x1fff0911   Data           0  bb_rom_sym_m0.txt ABSOLUTE
    g_maxConnNum                             0x1fff0914   Data           0  bb_rom_sym_m0.txt ABSOLUTE
    g_maxPktPerEventTx                       0x1fff0915   Data           0  bb_rom_sym_m0.txt ABSOLUTE
    g_maxPktPerEventRx                       0x1fff0916   Data           0  bb_rom_sym_m0.txt ABSOLUTE
    g_blePktVersion                          0x1fff0917   Data           0  bb_rom_sym_m0.txt ABSOLUTE
    g_llRlEnable                             0x1fff0918   Data           0  bb_rom_sym_m0.txt ABSOLUTE
    g_llScanMode                             0x1fff0919   Data           0  bb_rom_sym_m0.txt ABSOLUTE
    g_llAdvMode                              0x1fff091a   Data           0  bb_rom_sym_m0.txt ABSOLUTE
    LL_TaskID                                0x1fff091b   Data           0  bb_rom_sym_m0.txt ABSOLUTE
    llState                                  0x1fff091c   Data           0  bb_rom_sym_m0.txt ABSOLUTE
    numComplPkts                             0x1fff091d   Data           0  bb_rom_sym_m0.txt ABSOLUTE
    numComplPktsLimit                        0x1fff091e   Data           0  bb_rom_sym_m0.txt ABSOLUTE
    fastTxRespTime                           0x1fff091f   Data           0  bb_rom_sym_m0.txt ABSOLUTE
    g_llWlDeviceNum                          0x1fff0920   Data           0  bb_rom_sym_m0.txt ABSOLUTE
    g_llRlDeviceNum                          0x1fff0921   Data           0  bb_rom_sym_m0.txt ABSOLUTE
    rxFifoFlowCtrl                           0x1fff0922   Data           0  bb_rom_sym_m0.txt ABSOLUTE
    llSecondaryState                         0x1fff0923   Data           0  bb_rom_sym_m0.txt ABSOLUTE
    g_extAdvNumber                           0x1fff0924   Data           0  bb_rom_sym_m0.txt ABSOLUTE
    g_perioAdvNumber                         0x1fff0925   Data           0  bb_rom_sym_m0.txt ABSOLUTE
    g_schExtAdvNum                           0x1fff0926   Data           0  bb_rom_sym_m0.txt ABSOLUTE
    g_currentExtAdv                          0x1fff0927   Data           0  bb_rom_sym_m0.txt ABSOLUTE
    g_schExtAdvNum_periodic                  0x1fff0928   Data           0  bb_rom_sym_m0.txt ABSOLUTE
    g_currentExtAdv_periodic                 0x1fff0929   Data           0  bb_rom_sym_m0.txt ABSOLUTE
    g_llPrdAdvDeviceNum                      0x1fff092a   Data           0  bb_rom_sym_m0.txt ABSOLUTE
    g_llRlTimeout                            0x1fff092c   Data           0  bb_rom_sym_m0.txt ABSOLUTE
    g_advSetMaximumLen                       0x1fff0930   Data           0  bb_rom_sym_m0.txt ABSOLUTE
    conn_param                               0x1fff0934   Data           0  bb_rom_sym_m0.txt ABSOLUTE
    g_pExtendedAdvInfo                       0x1fff0938   Data           0  bb_rom_sym_m0.txt ABSOLUTE
    g_pPeriodicAdvInfo                       0x1fff093c   Data           0  bb_rom_sym_m0.txt ABSOLUTE
    g_pLLcteISample                          0x1fff0940   Data           0  bb_rom_sym_m0.txt ABSOLUTE
    g_pLLcteQSample                          0x1fff0944   Data           0  bb_rom_sym_m0.txt ABSOLUTE
    g_llHdcDirAdvTime                        0x1fff0948   Data           0  bb_rom_sym_m0.txt ABSOLUTE
    g_pAdvSchInfo                            0x1fff094c   Data           0  bb_rom_sym_m0.txt ABSOLUTE
    g_advPerSlotTick                         0x1fff0950   Data           0  bb_rom_sym_m0.txt ABSOLUTE
    g_advSlotPeriodic                        0x1fff0954   Data           0  bb_rom_sym_m0.txt ABSOLUTE
    g_pAdvSchInfo_periodic                   0x1fff0958   Data           0  bb_rom_sym_m0.txt ABSOLUTE
    g_timerExpiryTick                        0x1fff095c   Data           0  bb_rom_sym_m0.txt ABSOLUTE
    chanMapUpdate                            0x1fff0960   Data           0  bb_rom_sym_m0.txt ABSOLUTE
    ownPublicAddr                            0x1fff0965   Data           0  bb_rom_sym_m0.txt ABSOLUTE
    ownRandomAddr                            0x1fff096b   Data           0  bb_rom_sym_m0.txt ABSOLUTE
    verInfo                                  0x1fff0972   Data           0  bb_rom_sym_m0.txt ABSOLUTE
    peerInfo                                 0x1fff0978   Data           0  bb_rom_sym_m0.txt ABSOLUTE
    g_currentAdvTimer                        0x1fff0980   Data           0  bb_rom_sym_m0.txt ABSOLUTE
    g_currentTimerTask                       0x1fff0984   Data           0  bb_rom_sym_m0.txt ABSOLUTE
    g_adv_taskID                             0x1fff0988   Data           0  bb_rom_sym_m0.txt ABSOLUTE
    g_conn_taskID                            0x1fff0989   Data           0  bb_rom_sym_m0.txt ABSOLUTE
    g_smartWindowRTOCnt                      0x1fff098a   Data           0  bb_rom_sym_m0.txt ABSOLUTE
    isPeerRpaStore                           0x1fff098b   Data           0  bb_rom_sym_m0.txt ABSOLUTE
    g_same_rf_channel_flag                   0x1fff098c   Data           0  bb_rom_sym_m0.txt ABSOLUTE
    g_currentPeerAddrType                    0x1fff098d   Data           0  bb_rom_sym_m0.txt ABSOLUTE
    g_currentLocalAddrType                   0x1fff098e   Data           0  bb_rom_sym_m0.txt ABSOLUTE
    storeRpaListIndex                        0x1fff098f   Data           0  bb_rom_sym_m0.txt ABSOLUTE
    llTaskState                              0x1fff0990   Data           0  bb_rom_sym_m0.txt ABSOLUTE
    g_adv_taskEvent                          0x1fff0992   Data           0  bb_rom_sym_m0.txt ABSOLUTE
    g_conn_taskEvent                         0x1fff0994   Data           0  bb_rom_sym_m0.txt ABSOLUTE
    llWaitingIrq                             0x1fff0998   Data           0  bb_rom_sym_m0.txt ABSOLUTE
    ISR_entry_time                           0x1fff099c   Data           0  bb_rom_sym_m0.txt ABSOLUTE
    slave_conn_event_recv_delay              0x1fff09a0   Data           0  bb_rom_sym_m0.txt ABSOLUTE
    g_smartWindowLater                       0x1fff09a4   Data           0  bb_rom_sym_m0.txt ABSOLUTE
    g_smartWindowActiveCnt                   0x1fff09a8   Data           0  bb_rom_sym_m0.txt ABSOLUTE
    g_smartWindowPreAnchPoint                0x1fff09ac   Data           0  bb_rom_sym_m0.txt ABSOLUTE
    g_getPn23_cnt                            0x1fff09b0   Data           0  bb_rom_sym_m0.txt ABSOLUTE
    g_getPn23_seed                           0x1fff09b4   Data           0  bb_rom_sym_m0.txt ABSOLUTE
    llScanTime                               0x1fff09b8   Data           0  bb_rom_sym_m0.txt ABSOLUTE
    p_perStatsByChan                         0x1fff09bc   Data           0  bb_rom_sym_m0.txt ABSOLUTE
    LL_PLUS_AdvDataFilterCBack               0x1fff09c0   Data           0  bb_rom_sym_m0.txt ABSOLUTE
    LL_PLUS_ScanRequestFilterCBack           0x1fff09c4   Data           0  bb_rom_sym_m0.txt ABSOLUTE
    g_new_master_delta                       0x1fff09c8   Data           0  bb_rom_sym_m0.txt ABSOLUTE
    llScanT1                                 0x1fff09cc   Data           0  bb_rom_sym_m0.txt ABSOLUTE
    llCurrentScanChn                         0x1fff09d0   Data           0  bb_rom_sym_m0.txt ABSOLUTE
    g_currentLocalRpa                        0x1fff09d4   Data           0  bb_rom_sym_m0.txt ABSOLUTE
    g_currentPeerRpa                         0x1fff09da   Data           0  bb_rom_sym_m0.txt ABSOLUTE
    currentPeerRpa                           0x1fff09e0   Data           0  bb_rom_sym_m0.txt ABSOLUTE
    g_dle_taskID                             0x1fff09e6   Data           0  bb_rom_sym_m0.txt ABSOLUTE
    g_dle_taskEvent                          0x1fff09e8   Data           0  bb_rom_sym_m0.txt ABSOLUTE
    g_phyChg_taskID                          0x1fff09ea   Data           0  bb_rom_sym_m0.txt ABSOLUTE
    g_phyChg_taskEvent                       0x1fff09ec   Data           0  bb_rom_sym_m0.txt ABSOLUTE
    g_smartWindowSize                        0x1fff09f0   Data           0  bb_rom_sym_m0.txt ABSOLUTE
    g_smartWindowSizeNew                     0x1fff09f4   Data           0  bb_rom_sym_m0.txt ABSOLUTE
    g_smartWindowActive                      0x1fff09f8   Data           0  bb_rom_sym_m0.txt ABSOLUTE
    g_interAuxPduDuration                    0x1fff09fc   Data           0  bb_rom_sym_m0.txt ABSOLUTE
    g_rfTxPathCompensation                   0x1fff0a00   Data           0  bb_rom_sym_m0.txt ABSOLUTE
    g_rfRxPathCompensation                   0x1fff0a02   Data           0  bb_rom_sym_m0.txt ABSOLUTE
    connUpdateTimer                          0x1fff0a04   Data           0  bb_rom_sym_m0.txt ABSOLUTE
    sleep_flag                               0x1fff0a0c   Data           0  bb_rom_sym_m0.txt ABSOLUTE
    g_wakeup_rtc_tick                        0x1fff0a10   Data           0  bb_rom_sym_m0.txt ABSOLUTE
    g_counter_traking_avg                    0x1fff0a14   Data           0  bb_rom_sym_m0.txt ABSOLUTE
    g_TIM2_IRQ_TIM3_CurrCount                0x1fff0a18   Data           0  bb_rom_sym_m0.txt ABSOLUTE
    g_TIM2_IRQ_to_Sleep_DeltTick             0x1fff0a1c   Data           0  bb_rom_sym_m0.txt ABSOLUTE
    g_TIM2_IRQ_PendingTick                   0x1fff0a20   Data           0  bb_rom_sym_m0.txt ABSOLUTE
    g_osal_tick_trim                         0x1fff0a24   Data           0  bb_rom_sym_m0.txt ABSOLUTE
    g_osalTickTrim_mod                       0x1fff0a28   Data           0  bb_rom_sym_m0.txt ABSOLUTE
    rtc_mod_value                            0x1fff0a2c   Data           0  bb_rom_sym_m0.txt ABSOLUTE
    g_counter_traking_cnt                    0x1fff0a30   Data           0  bb_rom_sym_m0.txt ABSOLUTE
    sleep_tick                               0x1fff0a34   Data           0  bb_rom_sym_m0.txt ABSOLUTE
    counter_tracking                         0x1fff0a38   Data           0  bb_rom_sym_m0.txt ABSOLUTE
    forever_write                            0x1fff0a3c   Data           0  bb_rom_sym_m0.txt ABSOLUTE
    g_TIM2_wakeup_delay                      0x1fff0a40   Data           0  bb_rom_sym_m0.txt ABSOLUTE
    g_rfPhyTpCal0                            0x1fff0a44   Data           0  bb_rom_sym_m0.txt ABSOLUTE
    g_rfPhyTpCal1                            0x1fff0a45   Data           0  bb_rom_sym_m0.txt ABSOLUTE
    g_rfPhyTpCal0_2Mbps                      0x1fff0a46   Data           0  bb_rom_sym_m0.txt ABSOLUTE
    g_rfPhyTpCal1_2Mbps                      0x1fff0a47   Data           0  bb_rom_sym_m0.txt ABSOLUTE
    g_rfPhyTxPower                           0x1fff0a48   Data           0  bb_rom_sym_m0.txt ABSOLUTE
    g_rfPhyPktFmt                            0x1fff0a49   Data           0  bb_rom_sym_m0.txt ABSOLUTE
    g_system_clk                             0x1fff0a4a   Data           0  bb_rom_sym_m0.txt ABSOLUTE
    g_rfPhyClkSel                            0x1fff0a4b   Data           0  bb_rom_sym_m0.txt ABSOLUTE
    g_rxAdcClkSel                            0x1fff0a4c   Data           0  bb_rom_sym_m0.txt ABSOLUTE
    g_dtmModeType                            0x1fff0a4d   Data           0  bb_rom_sym_m0.txt ABSOLUTE
    g_dtmLength                              0x1fff0a4e   Data           0  bb_rom_sym_m0.txt ABSOLUTE
    g_dtmExtLen                              0x1fff0a4f   Data           0  bb_rom_sym_m0.txt ABSOLUTE
    g_dtmPKT                                 0x1fff0a50   Data           0  bb_rom_sym_m0.txt ABSOLUTE
    g_dtmTxPower                             0x1fff0a51   Data           0  bb_rom_sym_m0.txt ABSOLUTE
    g_dtmRssi                                0x1fff0a52   Data           0  bb_rom_sym_m0.txt ABSOLUTE
    g_dtmCarrSens                            0x1fff0a53   Data           0  bb_rom_sym_m0.txt ABSOLUTE
    g_dtmPktIntv                             0x1fff0a54   Data           0  bb_rom_sym_m0.txt ABSOLUTE
    g_dtmPktCount                            0x1fff0a56   Data           0  bb_rom_sym_m0.txt ABSOLUTE
    g_dtmRxCrcNum                            0x1fff0a58   Data           0  bb_rom_sym_m0.txt ABSOLUTE
    g_dtmRxTONum                             0x1fff0a5a   Data           0  bb_rom_sym_m0.txt ABSOLUTE
    g_dtmRsp                                 0x1fff0a5c   Data           0  bb_rom_sym_m0.txt ABSOLUTE
    g_dtmFoff                                0x1fff0a5e   Data           0  bb_rom_sym_m0.txt ABSOLUTE
    g_rfPhyRxDcIQ                            0x1fff0a60   Data           0  bb_rom_sym_m0.txt ABSOLUTE
    g_dtmTick                                0x1fff0a64   Data           0  bb_rom_sym_m0.txt ABSOLUTE
    g_rfPhyFreqOffSet                        0x1fff0a68   Data           0  bb_rom_sym_m0.txt ABSOLUTE
    g_rfPhyDtmCmd                            0x1fff0a69   Data           0  bb_rom_sym_m0.txt ABSOLUTE
    g_rfPhyDtmEvt                            0x1fff0a6b   Data           0  bb_rom_sym_m0.txt ABSOLUTE
    g_dtmCmd                                 0x1fff0a6d   Data           0  bb_rom_sym_m0.txt ABSOLUTE
    g_dtmFreq                                0x1fff0a6e   Data           0  bb_rom_sym_m0.txt ABSOLUTE
    g_dtmCtrl                                0x1fff0a6f   Data           0  bb_rom_sym_m0.txt ABSOLUTE
    g_dtmPara                                0x1fff0a70   Data           0  bb_rom_sym_m0.txt ABSOLUTE
    g_dtmEvt                                 0x1fff0a71   Data           0  bb_rom_sym_m0.txt ABSOLUTE
    g_dtmStatus                              0x1fff0a72   Data           0  bb_rom_sym_m0.txt ABSOLUTE
    g_dtmTpCalEnable                         0x1fff0a73   Data           0  bb_rom_sym_m0.txt ABSOLUTE
    g_dtmPerAutoIntv                         0x1fff0a74   Data           0  bb_rom_sym_m0.txt ABSOLUTE
    g_dtmAccessCode                          0x1fff0a78   Data           0  bb_rom_sym_m0.txt ABSOLUTE
    g_system_reset_cause                     0x1fff0a80   Data           0  bb_rom_sym_m0.txt ABSOLUTE
    cbTimers                                 0x1fff0afc   Data           0  bb_rom_sym_m0.txt ABSOLUTE
    g_llSleepContext                         0x1fff0b74   Data           0  bb_rom_sym_m0.txt ABSOLUTE
    syncInfo                                 0x1fff0b84   Data           0  bb_rom_sym_m0.txt ABSOLUTE
    scanSyncInfo                             0x1fff0b96   Data           0  bb_rom_sym_m0.txt ABSOLUTE
    adv_param                                0x1fff0ba6   Data           0  bb_rom_sym_m0.txt ABSOLUTE
    scanInfo                                 0x1fff0bbc   Data           0  bb_rom_sym_m0.txt ABSOLUTE
    initInfo                                 0x1fff0bd4   Data           0  bb_rom_sym_m0.txt ABSOLUTE
    extScanInfo                              0x1fff0be8   Data           0  bb_rom_sym_m0.txt ABSOLUTE
    extInitInfo                              0x1fff0c10   Data           0  bb_rom_sym_m0.txt ABSOLUTE
    g_llPeriodAdvSyncInfo                    0x1fff0c50   Data           0  bb_rom_sym_m0.txt ABSOLUTE
    g_ll_conn_ctx                            0x1fff0d30   Data           0  bb_rom_sym_m0.txt ABSOLUTE
    deviceFeatureSet                         0x1fff0e48   Data           0  bb_rom_sym_m0.txt ABSOLUTE
    g_llWhitelist                            0x1fff0e51   Data           0  bb_rom_sym_m0.txt ABSOLUTE
    g_llResolvinglist                        0x1fff0e89   Data           0  bb_rom_sym_m0.txt ABSOLUTE
    g_pmCounters                             0x1fff0ffc   Data           0  bb_rom_sym_m0.txt ABSOLUTE
    g_llPduLen                               0x1fff1084   Data           0  bb_rom_sym_m0.txt ABSOLUTE
    g_llPeriodicAdvlist                      0x1fff10a0   Data           0  bb_rom_sym_m0.txt ABSOLUTE
    rfCounters                               0x1fff10e0   Data           0  bb_rom_sym_m0.txt ABSOLUTE
    ext_adv_hdr                              0x1fff10ec   Data           0  bb_rom_sym_m0.txt ABSOLUTE
    dataPkt                                  0x1fff1118   Data           0  bb_rom_sym_m0.txt ABSOLUTE
    cachedTRNGdata                           0x1fff1138   Data           0  bb_rom_sym_m0.txt ABSOLUTE
    whiten_seed                              0x1fff1144   Data           0  bb_rom_sym_m0.txt ABSOLUTE
    g_tx_adv_buf                             0x1fff116c   Data           0  bb_rom_sym_m0.txt ABSOLUTE
    g_tx_ext_adv_buf                         0x1fff1278   Data           0  bb_rom_sym_m0.txt ABSOLUTE
    tx_scanRsp_desc                          0x1fff1384   Data           0  bb_rom_sym_m0.txt ABSOLUTE
    g_rx_adv_buf                             0x1fff1490   Data           0  bb_rom_sym_m0.txt ABSOLUTE
    __Vectors                                0x1fff1838   Data           4  startup_armcm0.o(RESET)
    __Vectors_End                            0x1fff18f8   Data           0  startup_armcm0.o(RESET)
    __main                                   0x1fff18f9   Thumb Code     0  entry.o(.ARM.Collect$$$$00000000)
    _main_stk                                0x1fff18f9   Thumb Code     0  entry2.o(.ARM.Collect$$$$00000001)
    _main_scatterload                        0x1fff18fd   Thumb Code     0  entry5.o(.ARM.Collect$$$$00000004)
    __main_after_scatterload                 0x1fff1901   Thumb Code     0  entry5.o(.ARM.Collect$$$$00000004)
    _main_clock                              0x1fff1901   Thumb Code     0  entry7b.o(.ARM.Collect$$$$00000008)
    _main_cpp_init                           0x1fff1901   Thumb Code     0  entry8b.o(.ARM.Collect$$$$0000000A)
    _main_init                               0x1fff1901   Thumb Code     0  entry9a.o(.ARM.Collect$$$$0000000B)
    __rt_final_cpp                           0x1fff1909   Thumb Code     0  entry10a.o(.ARM.Collect$$$$0000000D)
    __rt_final_exit                          0x1fff1909   Thumb Code     0  entry11a.o(.ARM.Collect$$$$0000000F)
    hard_fault                               0x1fff190d   Thumb Code    44  jump_table.o(.emb_text)
    Reset_Handler                            0x1fff1945   Thumb Code     8  startup_armcm0.o(.text)
    SVC_Handler                              0x1fff1951   Thumb Code     2  startup_armcm0.o(.text)
    SysTick_Handler                          0x1fff1955   Thumb Code     2  startup_armcm0.o(.text)
    AACI_IRQHandler                          0x1fff1957   Thumb Code     0  startup_armcm0.o(.text)
    CAN_IRQHandler                           0x1fff1957   Thumb Code     0  startup_armcm0.o(.text)
    CHLCD_IRQHandler                         0x1fff1957   Thumb Code     0  startup_armcm0.o(.text)
    CLCD_IRQHandler                          0x1fff1957   Thumb Code     0  startup_armcm0.o(.text)
    CPU_CLCD_IRQHandler                      0x1fff1957   Thumb Code     0  startup_armcm0.o(.text)
    ENET_IRQHandler                          0x1fff1957   Thumb Code     0  startup_armcm0.o(.text)
    FLEXRAY_IRQHandler                       0x1fff1957   Thumb Code     0  startup_armcm0.o(.text)
    I2C_IRQHandler                           0x1fff1957   Thumb Code     0  startup_armcm0.o(.text)
    LIN_IRQHandler                           0x1fff1957   Thumb Code     0  startup_armcm0.o(.text)
    MCIA_IRQHandler                          0x1fff1957   Thumb Code     0  startup_armcm0.o(.text)
    MCIB_IRQHandler                          0x1fff1957   Thumb Code     0  startup_armcm0.o(.text)
    RTC_IRQHandler                           0x1fff1957   Thumb Code     0  startup_armcm0.o(.text)
    SPI_IRQHandler                           0x1fff1957   Thumb Code     0  startup_armcm0.o(.text)
    TIM0_IRQHandler                          0x1fff1957   Thumb Code     0  startup_armcm0.o(.text)
    TIM2_IRQHandler                          0x1fff1957   Thumb Code     0  startup_armcm0.o(.text)
    UART0_IRQHandler                         0x1fff1957   Thumb Code     0  startup_armcm0.o(.text)
    UART1_IRQHandler                         0x1fff1957   Thumb Code     0  startup_armcm0.o(.text)
    UART2_IRQHandler                         0x1fff1957   Thumb Code     0  startup_armcm0.o(.text)
    UART3_IRQHandler                         0x1fff1957   Thumb Code     0  startup_armcm0.o(.text)
    UART4_IRQHandler                         0x1fff1957   Thumb Code     0  startup_armcm0.o(.text)
    USBDC_IRQHandler                         0x1fff1957   Thumb Code     0  startup_armcm0.o(.text)
    USBHC_IRQHandler                         0x1fff1957   Thumb Code     0  startup_armcm0.o(.text)
    WDT_IRQHandler                           0x1fff1957   Thumb Code     0  startup_armcm0.o(.text)
    __scatterload                            0x1fff1961   Thumb Code    28  init.o(.text)
    __scatterload_rt2                        0x1fff1961   Thumb Code     0  init.o(.text)
    __decompress                             0x1fff1985   Thumb Code     0  __dczerorl.o(.text)
    __decompress0                            0x1fff1985   Thumb Code    58  __dczerorl.o(.text)
    Long Thumb to Thumb Veneer to drv_disable_irq 0x1fff19c1   Thumb Code    12  anon$$obj.o(Veneer$$Code)
    Long Thumb to Thumb Veneer to LL_Disconnect0 0x1fff19cd   Thumb Code    12  anon$$obj.o(Veneer$$Code)
    Long Thumb to Thumb Veneer to drv_enable_irq 0x1fff19d9   Thumb Code    12  anon$$obj.o(Veneer$$Code)
    Long Thumb to Thumb Veneer to __aeabi_memclr4 0x1fff19e5   Thumb Code    12  anon$$obj.o(Veneer$$Code)
    Long Thumb to Thumb Veneer to LL_SetDataLengh0 0x1fff19f1   Thumb Code    12  anon$$obj.o(Veneer$$Code)
    Long Thumb to Thumb Veneer to llEnqueueDataQ 0x1fff19fd   Thumb Code    12  anon$$obj.o(Veneer$$Code)
    Long Thumb to Thumb Veneer to llProcessTxData 0x1fff1a09   Thumb Code    12  anon$$obj.o(Veneer$$Code)
    Long Thumb to Thumb Veneer to config_RTC 0x1fff1a15   Thumb Code    12  anon$$obj.o(Veneer$$Code)
    Long Thumb to Thumb Veneer to enter_sleep_off_mode 0x1fff1a21   Thumb Code    12  anon$$obj.o(Veneer$$Code)
    Long Thumb to Thumb Veneer to __aeabi_memcpy 0x1fff1a2d   Thumb Code    12  anon$$obj.o(Veneer$$Code)
    Long Thumb to Thumb Veneer to __aeabi_memclr 0x1fff1a39   Thumb Code    12  anon$$obj.o(Veneer$$Code)
    Long Thumb to Thumb Veneer to LL_ENC_AES128_Encrypt0 0x1fff1a45   Thumb Code    12  anon$$obj.o(Veneer$$Code)
    Long Thumb to Thumb Veneer to LL_ENC_LoadKey 0x1fff1a51   Thumb Code    12  anon$$obj.o(Veneer$$Code)
    Long Thumb to Thumb Veneer to LL_ENC_GenerateNonce 0x1fff1a5d   Thumb Code    12  anon$$obj.o(Veneer$$Code)
    Long Thumb to Thumb Veneer to __aeabi_uread4 0x1fff1a69   Thumb Code    12  anon$$obj.o(Veneer$$Code)
    Long Thumb to Thumb Veneer to read_current_fine_time 0x1fff1a75   Thumb Code    12  anon$$obj.o(Veneer$$Code)
    Long Thumb to Thumb Veneer to ll_debug_output 0x1fff1a81   Thumb Code    12  anon$$obj.o(Veneer$$Code)
    Long Thumb to Thumb Veneer to ll_hw_get_irq_status 0x1fff1a8d   Thumb Code    12  anon$$obj.o(Veneer$$Code)
    Long Thumb to Thumb Veneer to ll_hw_get_tr_mode 0x1fff1a99   Thumb Code    12  anon$$obj.o(Veneer$$Code)
    Long Thumb to Thumb Veneer to ll_hw_clr_irq 0x1fff1aa5   Thumb Code    12  anon$$obj.o(Veneer$$Code)
    Long Thumb to Thumb Veneer to ll_processExtAdvIRQ 0x1fff1ab1   Thumb Code    12  anon$$obj.o(Veneer$$Code)
    Long Thumb to Thumb Veneer to ll_processExtScanIRQ 0x1fff1abd   Thumb Code    12  anon$$obj.o(Veneer$$Code)
    Long Thumb to Thumb Veneer to ll_processExtInitIRQ 0x1fff1ac9   Thumb Code    12  anon$$obj.o(Veneer$$Code)
    Long Thumb to Thumb Veneer to ll_processPrdAdvIRQ 0x1fff1ad5   Thumb Code    12  anon$$obj.o(Veneer$$Code)
    Long Thumb to Thumb Veneer to ll_processPrdScanIRQ 0x1fff1ae1   Thumb Code    12  anon$$obj.o(Veneer$$Code)
    Long Thumb to Thumb Veneer to ll_processBasicIRQ 0x1fff1aed   Thumb Code    12  anon$$obj.o(Veneer$$Code)
    Long Thumb to Thumb Veneer to ll_schedule_next_event 0x1fff1af9   Thumb Code    12  anon$$obj.o(Veneer$$Code)
    Long Thumb to Thumb Veneer to llSecAdvAllow 0x1fff1b05   Thumb Code    12  anon$$obj.o(Veneer$$Code)
    Long Thumb to Thumb Veneer to llSetupSecAdvEvt 0x1fff1b11   Thumb Code    12  anon$$obj.o(Veneer$$Code)
    Long Thumb to Thumb Veneer to ll_hw_set_rx_timeout 0x1fff1b1d   Thumb Code    12  anon$$obj.o(Veneer$$Code)
    Long Thumb to Thumb Veneer to llSetupSecScan 0x1fff1b29   Thumb Code    12  anon$$obj.o(Veneer$$Code)
    Long Thumb to Thumb Veneer to llSetupSecInit 0x1fff1b35   Thumb Code    12  anon$$obj.o(Veneer$$Code)
    Long Thumb to Thumb Veneer to LL_DisconnectCback 0x1fff1b41   Thumb Code    12  anon$$obj.o(Veneer$$Code)
    Long Thumb to Thumb Veneer to LL_ProcessEvent0 0x1fff1b4d   Thumb Code    12  anon$$obj.o(Veneer$$Code)
    Long Thumb to Thumb Veneer to LL_Reset0  0x1fff1b59   Thumb Code    12  anon$$obj.o(Veneer$$Code)
    Long Thumb to Thumb Veneer to LL_set_default_conn_params0 0x1fff1b65   Thumb Code    12  anon$$obj.o(Veneer$$Code)
    Long Thumb to Thumb Veneer to efuse_read 0x1fff1b71   Thumb Code    12  anon$$obj.o(Veneer$$Code)
    Long Thumb to Thumb Veneer to rom_uart_init 0x1fff1b7d   Thumb Code    12  anon$$obj.o(Veneer$$Code)
    Long Thumb to Thumb Veneer to log_printf 0x1fff1b89   Thumb Code    12  anon$$obj.o(Veneer$$Code)
    Long Thumb to Thumb Veneer to rtc_get_counter 0x1fff1b95   Thumb Code    12  anon$$obj.o(Veneer$$Code)
    Long Thumb to Thumb Veneer to osal_init_system 0x1fff1ba1   Thumb Code    12  anon$$obj.o(Veneer$$Code)
    Long Thumb to Thumb Veneer to osal_pwrmgr_device 0x1fff1bad   Thumb Code    12  anon$$obj.o(Veneer$$Code)
    Long Thumb to Thumb Veneer to osal_start_system 0x1fff1bb9   Thumb Code    12  anon$$obj.o(Veneer$$Code)
    Long Thumb to Thumb Veneer to WaitRTCCount 0x1fff1bc5   Thumb Code    12  anon$$obj.o(Veneer$$Code)
    Long Thumb to Thumb Veneer to set_sleep_flag 0x1fff1bd1   Thumb Code    12  anon$$obj.o(Veneer$$Code)
    Long Thumb to Thumb Veneer to read_LL_remainder_time 0x1fff1bdd   Thumb Code    12  anon$$obj.o(Veneer$$Code)
    Long Thumb to Thumb Veneer to ll_hw_set_rx_timeout_1st 0x1fff1be9   Thumb Code    12  anon$$obj.o(Veneer$$Code)
    Long Thumb to Thumb Veneer to enterSleepProcess0 0x1fff1bf5   Thumb Code    12  anon$$obj.o(Veneer$$Code)
    Long Thumb to Thumb Veneer to LL_ENC_AES128_Encrypt 0x1fff1c01   Thumb Code    12  anon$$obj.o(Veneer$$Code)
    Long Thumb to Thumb Veneer to osal_memcmp 0x1fff1c0d   Thumb Code    12  anon$$obj.o(Veneer$$Code)
    Long Thumb to Thumb Veneer to __aeabi_memcpy4 0x1fff1c19   Thumb Code    12  anon$$obj.o(Veneer$$Code)
    Long Thumb to Thumb Veneer to hal_gpio_pull_set 0x1fff1c25   Thumb Code    12  anon$$obj.o(Veneer$$Code)
    Long Thumb to Thumb Veneer to disableSleep 0x1fff1c31   Thumb Code    12  anon$$obj.o(Veneer$$Code)
    Long Thumb to Thumb Veneer to enableSleep 0x1fff1c3d   Thumb Code    12  anon$$obj.o(Veneer$$Code)
    Long Thumb to Thumb Veneer to osal_mem_set_heap 0x1fff1c49   Thumb Code    12  anon$$obj.o(Veneer$$Code)
    Long Thumb to Thumb Veneer to spif_config 0x1fff1c55   Thumb Code    12  anon$$obj.o(Veneer$$Code)
    Long Thumb to Thumb Veneer to spif_read_id 0x1fff1c61   Thumb Code    12  anon$$obj.o(Veneer$$Code)
    Long Thumb to Thumb Veneer to llProcessTxData0 0x1fff1c6d   Thumb Code    12  anon$$obj.o(Veneer$$Code)
    Long Thumb to Thumb Veneer to llReleaseConnId0 0x1fff1c79   Thumb Code    12  anon$$obj.o(Veneer$$Code)
    Long Thumb to Thumb Veneer to llSlaveEvt_TaskEndOk0 0x1fff1c85   Thumb Code    12  anon$$obj.o(Veneer$$Code)
    Long Thumb to Thumb Veneer to getTxBufferFree 0x1fff1c91   Thumb Code    12  anon$$obj.o(Veneer$$Code)
    Long Thumb to Thumb Veneer to get_tx_write_ptr 0x1fff1c9d   Thumb Code    12  anon$$obj.o(Veneer$$Code)
    Long Thumb to Thumb Veneer to LL_ENC_Encrypt 0x1fff1ca9   Thumb Code    12  anon$$obj.o(Veneer$$Code)
    Long Thumb to Thumb Veneer to update_tx_write_ptr 0x1fff1cb5   Thumb Code    12  anon$$obj.o(Veneer$$Code)
    Long Thumb to Thumb Veneer to ll_hw_write_tfifo 0x1fff1cc1   Thumb Code    12  anon$$obj.o(Veneer$$Code)
    Long Thumb to Thumb Veneer to ll_hw_get_tfifo_wrptr 0x1fff1ccd   Thumb Code    12  anon$$obj.o(Veneer$$Code)
    Long Thumb to Thumb Veneer to getTxBufferSize 0x1fff1cd9   Thumb Code    12  anon$$obj.o(Veneer$$Code)
    Long Thumb to Thumb Veneer to get_tx_read_ptr 0x1fff1ce5   Thumb Code    12  anon$$obj.o(Veneer$$Code)
    Long Thumb to Thumb Veneer to update_tx_read_ptr 0x1fff1cf1   Thumb Code    12  anon$$obj.o(Veneer$$Code)
    Long Thumb to Thumb Veneer to llEnqueueCtrlPkt 0x1fff1cfd   Thumb Code    12  anon$$obj.o(Veneer$$Code)
    Long Thumb to Thumb Veneer to ll_hw_set_loop_timeout 0x1fff1d09   Thumb Code    12  anon$$obj.o(Veneer$$Code)
    Long Thumb to Thumb Veneer to get_rx_write_ptr 0x1fff1d15   Thumb Code    12  anon$$obj.o(Veneer$$Code)
    Long Thumb to Thumb Veneer to getRxBufferFree 0x1fff1d21   Thumb Code    12  anon$$obj.o(Veneer$$Code)
    Long Thumb to Thumb Veneer to set_max_length 0x1fff1d2d   Thumb Code    12  anon$$obj.o(Veneer$$Code)
    Long Thumb to Thumb Veneer to ll_hw_read_tfifo_packet 0x1fff1d39   Thumb Code    12  anon$$obj.o(Veneer$$Code)
    Long Thumb to Thumb Veneer to osal_mem_alloc 0x1fff1d45   Thumb Code    12  anon$$obj.o(Veneer$$Code)
    Long Thumb to Thumb Veneer to ll_read_rxfifo0 0x1fff1d51   Thumb Code    12  anon$$obj.o(Veneer$$Code)
    Long Thumb to Thumb Veneer to drv_irq_init 0x1fff1d5d   Thumb Code    12  anon$$obj.o(Veneer$$Code)
    Long Thumb to Thumb Veneer to init_config 0x1fff1d69   Thumb Code    12  anon$$obj.o(Veneer$$Code)
    Long Thumb to Thumb Veneer to hal_gpio_init 0x1fff1d75   Thumb Code    12  anon$$obj.o(Veneer$$Code)
    Long Thumb to Thumb Veneer to hal_adc_init 0x1fff1d81   Thumb Code    12  anon$$obj.o(Veneer$$Code)
    Long Thumb to Thumb Veneer to __aeabi_uidivmod 0x1fff1d8d   Thumb Code    12  anon$$obj.o(Veneer$$Code)
    Long Thumb to Thumb Veneer to osal_memset 0x1fff1d99   Thumb Code    12  anon$$obj.o(Veneer$$Code)
    Long Thumb to Thumb Veneer to LL_Init    0x1fff1da5   Thumb Code    12  anon$$obj.o(Veneer$$Code)
    Long Thumb to Thumb Veneer to osal_pwrmgr_powerconserve0 0x1fff1db1   Thumb Code    12  anon$$obj.o(Veneer$$Code)
    Long Thumb to Thumb Veneer to ll_hw_set_crc_fmt 0x1fff1dbd   Thumb Code    12  anon$$obj.o(Veneer$$Code)
    Long Thumb to Thumb Veneer to ll_hw_tx2rx_timing_config 0x1fff1dc9   Thumb Code    12  anon$$obj.o(Veneer$$Code)
    Long Thumb to Thumb Veneer to __ARM_common_switch8 0x1fff1dd5   Thumb Code    12  anon$$obj.o(Veneer$$Code)
    Long Thumb to Thumb Veneer to osal_stop_timerEx 0x1fff1de1   Thumb Code    12  anon$$obj.o(Veneer$$Code)
    Long Thumb to Thumb Veneer to hal_voice_stop 0x1fff1ded   Thumb Code    12  anon$$obj.o(Veneer$$Code)
    Long Thumb to Thumb Veneer to hal_voice_deinit 0x1fff1df9   Thumb Code    12  anon$$obj.o(Veneer$$Code)
    Long Thumb to Thumb Veneer to osal_start_timerEx 0x1fff1e05   Thumb Code    12  anon$$obj.o(Veneer$$Code)
    Long Thumb to Thumb Veneer to hal_gpio_fmux 0x1fff1e11   Thumb Code    12  anon$$obj.o(Veneer$$Code)
    Long Thumb to Thumb Veneer to clk_get_pclk 0x1fff1e1d   Thumb Code    12  anon$$obj.o(Veneer$$Code)
    Long Thumb to Thumb Veneer to hal_gpio_fmux_set 0x1fff1e29   Thumb Code    12  anon$$obj.o(Veneer$$Code)
    Long Thumb to Thumb Veneer to hal_gpio_pin_init 0x1fff1e35   Thumb Code    12  anon$$obj.o(Veneer$$Code)
    Long Thumb to Thumb Veneer to hal_voice_config 0x1fff1e41   Thumb Code    12  anon$$obj.o(Veneer$$Code)
    Long Thumb to Thumb Veneer to hal_poilling_adc_stop 0x1fff1e4d   Thumb Code    12  anon$$obj.o(Veneer$$Code)
    Long Thumb to Thumb Veneer to hal_voice_init 0x1fff1e59   Thumb Code    12  anon$$obj.o(Veneer$$Code)
    Long Thumb to Thumb Veneer to hal_voice_start 0x1fff1e65   Thumb Code    12  anon$$obj.o(Veneer$$Code)
    Long Thumb to Thumb Veneer to hal_gpioin_register 0x1fff1e71   Thumb Code    12  anon$$obj.o(Veneer$$Code)
    Long Thumb to Thumb Veneer to osal_msg_receive 0x1fff1e7d   Thumb Code    12  anon$$obj.o(Veneer$$Code)
    Long Thumb to Thumb Veneer to osal_msg_deallocate 0x1fff1e89   Thumb Code    12  anon$$obj.o(Veneer$$Code)
    Long Thumb to Thumb Veneer to osal_set_event 0x1fff1e95   Thumb Code    12  anon$$obj.o(Veneer$$Code)
    Long Thumb to Thumb Veneer to osalTimeUpdate 0x1fff1ea1   Thumb Code    12  anon$$obj.o(Veneer$$Code)
    Long Thumb to Thumb Veneer to set_timer  0x1fff1ead   Thumb Code    12  anon$$obj.o(Veneer$$Code)
    Long Thumb to Thumb Veneer to app_wakeup_process 0x1fff1eb9   Thumb Code    12  anon$$obj.o(Veneer$$Code)
    Long Thumb to Thumb Veneer to ll_hw_set_empty_head 0x1fff1ec5   Thumb Code    12  anon$$obj.o(Veneer$$Code)
    Long Thumb to Thumb Veneer to ll_hw_set_timing 0x1fff1ed1   Thumb Code    12  anon$$obj.o(Veneer$$Code)
    Long Thumb to Thumb Veneer to ll_hw_ign_rfifo 0x1fff1edd   Thumb Code    12  anon$$obj.o(Veneer$$Code)
    LL_Disconnect1                           0x1fff1ee9   Thumb Code    28  patch.o(_func_xip_code_.LL_Disconnect1)
    LL_InitConnectContext                    0x1fff1f05   Thumb Code   250  patch.o(_func_xip_code_.LL_InitConnectContext)
    LL_SetDataLengh1                         0x1fff2021   Thumb Code    40  patch.o(_func_xip_code_.LL_SetDataLengh1)
    LL_TxData1                               0x1fff2051   Thumb Code   150  patch.o(_func_xip_code_.LL_TxData1)
    hal_pwrmgr_enter_sleep_rtc_reset         0x1fff21d9   Thumb Code    46  pwrmgr.o(_section_sram_code_)
    FillBuffer                               0x1fff220d   Thumb Code    80  voice_circ_buff.o(i.FillBuffer)
    GetBufferSize                            0x1fff225d   Thumb Code    24  voice_circ_buff.o(i.GetBufferSize)
    InitCircularBuffer                       0x1fff2275   Thumb Code    36  voice_circ_buff.o(i.InitCircularBuffer)
    InitQueue                                0x1fff2299   Thumb Code    30  voice_queue.o(i.InitQueue)
    IsBufferSizeFilled                       0x1fff22c1   Thumb Code    20  voice_circ_buff.o(i.IsBufferSizeFilled)
    IsBufferVacant                           0x1fff22d5   Thumb Code    20  voice_circ_buff.o(i.IsBufferVacant)
    LL_ENC_AES128_Encrypt1                   0x1fff22e9   Thumb Code    26  patch.o(i.LL_ENC_AES128_Encrypt1)
    LL_ENC_Decrypt1                          0x1fff2305   Thumb Code   364  patch.o(i.LL_ENC_Decrypt1)
    LL_ENC_Encrypt1                          0x1fff247d   Thumb Code   342  patch.o(i.LL_ENC_Encrypt1)
    LL_IRQHandler1                           0x1fff25dd   Thumb Code   406  patch.o(i.LL_IRQHandler1)
    LL_ProcessEvent1                         0x1fff2799   Thumb Code    72  patch.o(i.LL_ProcessEvent1)
    LL_Reset1                                0x1fff27ed   Thumb Code    24  patch.o(i.LL_Reset1)
    LL_set_default_conn_params1              0x1fff2805   Thumb Code    72  patch.o(i.LL_set_default_conn_params1)
    ReadBuffer                               0x1fff2861   Thumb Code    58  voice_circ_buff.o(i.ReadBuffer)
    SystemInit                               0x1fff289d   Thumb Code     8  system_armcm0.o(i.SystemInit)
    UpdateReadPtr                            0x1fff28ad   Thumb Code    30  voice_circ_buff.o(i.UpdateReadPtr)
    UpdateWritePtr                           0x1fff28cb   Thumb Code    30  voice_circ_buff.o(i.UpdateWritePtr)
    __scatterload_copy                       0x1fff292d   Thumb Code    14  handlers.o(i.__scatterload_copy)
    __scatterload_null                       0x1fff293b   Thumb Code     2  handlers.o(i.__scatterload_null)
    __scatterload_zeroinit                   0x1fff293d   Thumb Code    14  handlers.o(i.__scatterload_zeroinit)
    __wdt_init                               0x1fff294d   Thumb Code    12  patch.o(i.__wdt_init)
    _efuse_chip_version_check                0x1fff2a69   Thumb Code    26  phy_sec_ext.o(i._efuse_chip_version_check)
    _hard_fault                              0x1fff2a89   Thumb Code   206  jump_table.o(i._hard_fault)
    _rom_efuse_version_init                  0x1fff2cc5   Thumb Code    32  phy_sec_ext.o(i._rom_efuse_version_init)
    _rom_sec_boot_init                       0x1fff2ce5   Thumb Code    22  phy_sec_ext.o(i._rom_sec_boot_init)
    _uart_putc                               0x1fff2d01   Thumb Code    14  my_printf.o(i._uart_putc)
    app_main                                 0x1fff2d59   Thumb Code    20  adc_main.o(i.app_main)
    clk_init                                 0x1fff2fd1   Thumb Code   108  patch.o(i.clk_init)
    config_RTC1                              0x1fff3051   Thumb Code   144  patch.o(i.config_RTC1)
    dbg_printf                               0x1fff3191   Thumb Code    22  my_printf.o(i.dbg_printf)
    dbg_printf_init                          0x1fff31ad   Thumb Code    16  my_printf.o(i.dbg_printf_init)
    efuse_init                               0x1fff31c1   Thumb Code    14  phy_sec_ext.o(i.efuse_init)
    enterSleepProcess1                       0x1fff3291   Thumb Code    56  patch.o(i.enterSleepProcess1)
    finidv                                   0x1fff32d5   Thumb Code   126  phy_sec_ext.o(i.finidv)
    global_config_hclk_related               0x1fff3361   Thumb Code   140  patch.o(i.global_config_hclk_related)
    hal_UART0_IRQHandler                     0x1fff33f5   Thumb Code    62  uart.o(i.hal_UART0_IRQHandler)
    hal_UART1_IRQHandler                     0x1fff3439   Thumb Code    62  uart.o(i.hal_UART1_IRQHandler)
    hal_cache_tag_flush                      0x1fff347d   Thumb Code    66  flash.o(i.hal_cache_tag_flush)
    hal_clk_gate_disable                     0x1fff34c5   Thumb Code    52  clock.o(i.hal_clk_gate_disable)
    hal_clk_gate_enable                      0x1fff34f9   Thumb Code    52  clock.o(i.hal_clk_gate_enable)
    hal_clk_reset                            0x1fff352d   Thumb Code   122  clock.o(i.hal_clk_reset)
    hal_pwrmgr_LowCurrentLdo_enable          0x1fff3615   Thumb Code    16  pwrmgr.o(i.hal_pwrmgr_LowCurrentLdo_enable)
    hal_pwrmgr_RAM_retention                 0x1fff3629   Thumb Code    32  pwrmgr.o(i.hal_pwrmgr_RAM_retention)
    hal_pwrmgr_RAM_retention_clr             0x1fff364d   Thumb Code    16  pwrmgr.o(i.hal_pwrmgr_RAM_retention_clr)
    hal_pwrmgr_RAM_retention_set             0x1fff3661   Thumb Code    26  pwrmgr.o(i.hal_pwrmgr_RAM_retention_set)
    hal_pwrmgr_init                          0x1fff3685   Thumb Code    40  pwrmgr.o(i.hal_pwrmgr_init)
    hal_pwrmgr_lock                          0x1fff36b5   Thumb Code    80  pwrmgr.o(i.hal_pwrmgr_lock)
    hal_pwrmgr_register                      0x1fff370d   Thumb Code    76  pwrmgr.o(i.hal_pwrmgr_register)
    hal_pwrmgr_sleep_process                 0x1fff3761   Thumb Code     4  pwrmgr.o(i.hal_pwrmgr_sleep_process)
    hal_pwrmgr_unlock                        0x1fff3765   Thumb Code    94  pwrmgr.o(i.hal_pwrmgr_unlock)
    hal_pwrmgr_unregister                    0x1fff37cd   Thumb Code    84  pwrmgr.o(i.hal_pwrmgr_unregister)
    hal_pwrmgr_wakeup_process                0x1fff3829   Thumb Code     4  pwrmgr.o(i.hal_pwrmgr_wakeup_process)
    hal_rc32k_clk_tracking_init              0x1fff382d   Thumb Code    24  clock.o(i.hal_rc32k_clk_tracking_init)
    hal_rom_boot_init                        0x1fff38dd   Thumb Code     8  patch.o(i.hal_rom_boot_init)
    hal_rtc_clock_config                     0x1fff38e5   Thumb Code   118  clock.o(i.hal_rtc_clock_config)
    hal_spif_cache_init                      0x1fff3969   Thumb Code    24  flash.o(i.hal_spif_cache_init)
    hal_system_clock_change_process          0x1fff3989   Thumb Code    12  patch.o(i.hal_system_clock_change_process)
    hal_uart_init                            0x1fff3999   Thumb Code    88  uart.o(i.hal_uart_init)
    hal_uart_send_buff                       0x1fff39fd   Thumb Code    26  uart.o(i.hal_uart_send_buff)
    isTimer5Running                          0x1fff3ac5   Thumb Code    12  patch.o(i.isTimer5Running)
    l2capPocessFragmentTxData                0x1fff3ad5   Thumb Code     2  patch.o(i.l2capPocessFragmentTxData)
    lib_efuse_load                           0x1fff3ad9   Thumb Code   168  lib_efuse3.o(i.lib_efuse_load)
    llProcessTxData1                         0x1fff3b91   Thumb Code    80  patch.o(i.llProcessTxData1)
    llReleaseConnId1                         0x1fff3be5   Thumb Code   192  patch.o(i.llReleaseConnId1)
    llSlaveEvt_TaskEndOk1                    0x1fff3ca5   Thumb Code    46  patch.o(i.llSlaveEvt_TaskEndOk1)
    llWriteTxData1                           0x1fff3cdd   Thumb Code   162  patch.o(i.llWriteTxData1)
    ll_generateTxBuffer1                     0x1fff3de1   Thumb Code   614  patch.o(i.ll_generateTxBuffer1)
    ll_hw_go1                                0x1fff405d   Thumb Code   628  patch.o(i.ll_hw_go1)
    ll_hw_read_tfifo_rtlp1                   0x1fff4339   Thumb Code   198  patch.o(i.ll_hw_read_tfifo_rtlp1)
    ll_osal_mem_alloc                        0x1fff4415   Thumb Code   122  patch.o(i.ll_osal_mem_alloc)
    ll_osal_mem_free                         0x1fff44a9   Thumb Code    74  patch.o(i.ll_osal_mem_free)
    ll_processBasicIRQ_SRX                   0x1fff44f9   Thumb Code    20  patch.o(i.ll_processBasicIRQ_SRX)
    ll_processBasicIRQ_ScanTRX               0x1fff4511   Thumb Code    20  patch.o(i.ll_processBasicIRQ_ScanTRX)
    ll_processBasicIRQ_secScanTRX            0x1fff4529   Thumb Code    20  patch.o(i.ll_processBasicIRQ_secScanTRX)
    ll_processBasicIRQ_secondaryAdvSTX       0x1fff4541   Thumb Code    20  patch.o(i.ll_processBasicIRQ_secondaryAdvSTX)
    ll_processBasicIRQ_secondaryAdvTRX       0x1fff4559   Thumb Code    20  patch.o(i.ll_processBasicIRQ_secondaryAdvTRX)
    ll_processBasicIRQ_secondaryInitSRX      0x1fff4571   Thumb Code    20  patch.o(i.ll_processBasicIRQ_secondaryInitSRX)
    ll_processBasicIRQ_secondaryScanSRX      0x1fff4589   Thumb Code    20  patch.o(i.ll_processBasicIRQ_secondaryScanSRX)
    ll_read_rxfifo1                          0x1fff45a1   Thumb Code    44  patch.o(i.ll_read_rxfifo1)
    llbuf_alloc_time_statics                 0x1fff45dd   Thumb Code    62  patch.o(i.llbuf_alloc_time_statics)
    main                                     0x1fff488d   Thumb Code   136  main.o(i.main)
    osalInitTasks                            0x1fff4b19   Thumb Code    38  osal_adc.o(i.osalInitTasks)
    osal_idle_task0                          0x1fff4b45   Thumb Code    20  patch.o(i.osal_idle_task0)
    osal_search_active_task                  0x1fff4b5d   Thumb Code    52  patch.o(i.osal_search_active_task)
    patch_linkBuf_init                       0x1fff4b95   Thumb Code   142  patch.o(i.patch_linkBuf_init)
    rc32k_calibration                        0x1fff4c35   Thumb Code   122  rf_phy_driver.o(i.rc32k_calibration)
    rc32k_cap_cal                            0x1fff4cb5   Thumb Code    74  patch.o(i.rc32k_cap_cal)
    rf_calibrate1                            0x1fff4d19   Thumb Code    12  rf_phy_driver.o(i.rf_calibrate1)
    rf_phy_ana_cfg                           0x1fff4d25   Thumb Code   232  rf_phy_driver.o(i.rf_phy_ana_cfg)
    rf_phy_bb_cfg                            0x1fff4e41   Thumb Code   310  rf_phy_driver.o(i.rf_phy_bb_cfg)
    rf_phy_change_cfg0                       0x1fff4fed   Thumb Code   138  rf_phy_driver.o(i.rf_phy_change_cfg0)
    rf_phy_ini                               0x1fff5095   Thumb Code    42  rf_phy_driver.o(i.rf_phy_ini)
    rf_phy_set_txPower                       0x1fff50d1   Thumb Code   108  rf_phy_driver.o(i.rf_phy_set_txPower)
    rf_tpCal_gen_cap_arrary                  0x1fff5145   Thumb Code    60  rf_phy_driver.o(i.rf_tpCal_gen_cap_arrary)
    rf_tp_cal                                0x1fff5191   Thumb Code   236  rf_phy_driver.o(i.rf_tp_cal)
    voice_Init                               0x1fff5739   Thumb Code    46  voice_demo.o(i.voice_Init)
    voice_ProcessEvent                       0x1fff5771   Thumb Code    82  voice_demo.o(i.voice_ProcessEvent)
    voice_data_encode_inqueue                0x1fff57c9   Thumb Code    28  voice_demo.o(i.voice_data_encode_inqueue)
    voice_requeset_data                      0x1fff5841   Thumb Code    42  voice_demo.o(i.voice_requeset_data)
    wakeupProcess1                           0x1fff5871   Thumb Code   444  patch.o(i.wakeupProcess1)
    wakeup_init1                             0x1fff5a85   Thumb Code   294  patch.o(i.wakeup_init1)
    Region$$Table$$Base                      0x1fff5cd4   Number         0  anon$$obj.o(Region$$Table)
    Region$$Table$$Limit                     0x1fff5d04   Number         0  anon$$obj.o(Region$$Table)
    tasksArr                                 0x1fff5d04   Data           8  osal_adc.o(_section_sram_code_)
    tasksCnt                                 0x1fff5d0c   Data           1  osal_adc.o(_section_sram_code_)
    g_clk32K_config                          0x1fff5d10   Data           1  main.o(.data)
    tasksEvents                              0x1fff5d14   Data           4  osal_adc.o(.data)
    VoiceSend_SubIndex                       0x1fff5d18   Data           1  voice_queue.o(.data)
    voiceDemo_TaskID                         0x1fff5d1c   Data           1  voice_demo.o(.data)
    VoiceRaw_FiFO                            0x1fff5d20   Data           4  voice_demo.o(.data)
    s_config_swClk1                          0x1fff5d38   Data           4  pwrmgr.o(.data)
    pwroff_register_number                   0x1fff5d3c   Data           1  pwrmgr.o(.data)
    s_pinmap                                 0x1fff5d50   Data           9  adc.o(.data)
    spif_dma_use                             0x1fff5d5c   Data           1  flash.o(.data)
    g_chipMAddr                              0x1fff5d64   Data           7  flash.o(.data)
    trap_c_callback                          0x1fff5d6c   Data           4  jump_table.o(.data)
    SystemCoreClock                          0x1fff5d70   Data           4  system_armcm0.o(.data)
    ll_recv_scan_all_cnt                     0x1fff5d74   Data           1  patch.o(.data)
    g_ll_adv_scan_concurrent                 0x1fff5d75   Data           1  patch.o(.data)
    g_ll_sleep_timer5_recoverRequired        0x1fff5d76   Data           1  patch.o(.data)
    g_txdata_content                         0x1fff5d77   Data           1  patch.o(.data)
    g_recvphyupdate                          0x1fff5d78   Data           1  patch.o(.data)
    g_msater_recv_phyrsp                     0x1fff5d79   Data           1  patch.o(.data)
    g_system_clk_change                      0x1fff5d7a   Data           1  patch.o(.data)
    _clk_change_flg                          0x1fff5d7b   Data           1  patch.o(.data)
    chip_hw_version                          0x1fff5d7d   Data           1  patch.o(.data)
    g_clock_check_flag                       0x1fff5d7e   Data           1  patch.o(.data)
    pGlobal_config                           0x1fff5d80   Data           4  patch.o(.data)
    g_t_llhwgo                               0x1fff5d84   Data           4  patch.o(.data)
    ll_timer5_remain_time                    0x1fff5d88   Data           4  patch.o(.data)
    p_g_llDevList                            0x1fff5d8c   Data           4  patch.o(.data)
    g_llbuf_alloc_Max                        0x1fff5d90   Data           4  patch.o(.data)
    g_llbuf_alloc_Min                        0x1fff5d94   Data           4  patch.o(.data)
    g_llbuf_alloc_avg                        0x1fff5d98   Data           4  patch.o(.data)
    g_xtal16M_tmp                            0x1fff5d9c   Data           4  patch.o(.data)
    g_xtal96M_temp                           0x1fff5da0   Data           4  patch.o(.data)
    DLL_enable_num                           0x1fff5da4   Data           4  patch.o(.data)
    tracking_cnt                             0x1fff5da8   Data           4  patch.o(.data)
    ff1_llLink                               0x1fff5dac   Data           4  patch.o(.data)
    theHeap_llLink                           0x1fff5db0   Data           4  patch.o(.data)
    heapSize_llLink                          0x1fff5db4   Data           4  patch.o(.data)
    ff1_mesh                                 0x1fff5db8   Data           4  patch.o(.data)
    theHeap_mesh                             0x1fff5dbc   Data           4  patch.o(.data)
    heapSize_mesh                            0x1fff5dc0   Data           4  patch.o(.data)
    sleep_total                              0x1fff5dc4   Data           4  patch.o(.data)
    restore_index                            0x1fff5dcd   Data          16  patch.o(.data)
    g_ota_sec_key_valid                      0x1fff5ddd   Data           1  phy_sec_ext.o(.data)
    g_pConnectionBuffer                      0x1fff5de8   Data        3484  main.o(.bss)
    pConnContext                             0x1fff6b84   Data         644  main.o(.bss)
    g_largeHeap                              0x1fff6e08   Data        4096  main.o(.bss)
    Voicebuf                                 0x1fff7e08   Data         500  voice_queue.o(.bss)
    VoiceQueue                               0x1fff7ffc   Data          24  voice_queue.o(.bss)
    voice_tmp_buf                            0x1fff8014   Data         384  voice_demo.o(.bss)
    s_pwroff_cfg                             0x1fff867c   Data          12  pwrmgr.o(.bss)
    restore_patch                            0x1fff88c0   Data          64  patch.o(.bss)
    g_tx_scanreq_buf                         0x1fff8900   Data         268  patch.o(.bss)
    g_ll_flowCtrl                            0x1fff8a0c   Data          32  patch.o(.bss)
    llBuf_Res                                0x1fff8a2c   Data         448  patch.o(.bss)
    g_ota_sec_key                            0x1fff8c4c   Data          16  phy_sec_ext.o(.bss)
    __initial_sp                             0x1fff9060   Data           0  startup_armcm0.o(STACK)



==============================================================================

Memory Map of the image

  Image Entry point : 0x1fff18f9

  Load Region LR_IROM1 (Base: 0x1fff1838, Size: 0x000045b0, Max: 0x0000e7c8, ABSOLUTE)

    Execution Region ER_IROM1 (Exec base: 0x1fff1838, Load base: 0x1fff1838, Size: 0x00007828, Max: 0x0000e7c8, ABSOLUTE)

    Exec Addr    Load Addr    Size         Type   Attr      Idx    E Section Name        Object

    0x1fff1838   0x1fff1838   0x000000c0   Data   RO         1607    RESET               startup_armcm0.o
    0x1fff18f8   0x1fff18f8   0x00000000   Code   RO         2148  * .ARM.Collect$$$$00000000  mc_p.l(entry.o)
    0x1fff18f8   0x1fff18f8   0x00000004   Code   RO         2203    .ARM.Collect$$$$00000001  mc_p.l(entry2.o)
    0x1fff18fc   0x1fff18fc   0x00000004   Code   RO         2206    .ARM.Collect$$$$00000004  mc_p.l(entry5.o)
    0x1fff1900   0x1fff1900   0x00000000   Code   RO         2208    .ARM.Collect$$$$00000008  mc_p.l(entry7b.o)
    0x1fff1900   0x1fff1900   0x00000000   Code   RO         2210    .ARM.Collect$$$$0000000A  mc_p.l(entry8b.o)
    0x1fff1900   0x1fff1900   0x00000008   Code   RO         2211    .ARM.Collect$$$$0000000B  mc_p.l(entry9a.o)
    0x1fff1908   0x1fff1908   0x00000000   Code   RO         2213    .ARM.Collect$$$$0000000D  mc_p.l(entry10a.o)
    0x1fff1908   0x1fff1908   0x00000000   Code   RO         2215    .ARM.Collect$$$$0000000F  mc_p.l(entry11a.o)
    0x1fff1908   0x1fff1908   0x00000004   Code   RO         2204    .ARM.Collect$$$$00002712  mc_p.l(entry2.o)
    0x1fff190c   0x1fff190c   0x00000038   Code   RO         1577    .emb_text           jump_table.o
    0x1fff1944   0x1fff1944   0x0000001c   Code   RO         1608    .text               startup_armcm0.o
    0x1fff1960   0x1fff1960   0x00000024   Code   RO         2226    .text               mc_p.l(init.o)
    0x1fff1984   0x1fff1984   0x0000003a   Code   RO         2240    .text               mc_p.l(__dczerorl.o)
    0x1fff19be   0x1fff19be   0x00000002   PAD
    0x1fff19c0   0x1fff19c0   0x0000000c   Ven    RO         2242    Veneer$$Code        anon$$obj.o
    0x1fff19cc   0x1fff19cc   0x0000000c   Ven    RO         2243    Veneer$$Code        anon$$obj.o
    0x1fff19d8   0x1fff19d8   0x0000000c   Ven    RO         2244    Veneer$$Code        anon$$obj.o
    0x1fff19e4   0x1fff19e4   0x0000000c   Ven    RO         2245    Veneer$$Code        anon$$obj.o
    0x1fff19f0   0x1fff19f0   0x0000000c   Ven    RO         2246    Veneer$$Code        anon$$obj.o
    0x1fff19fc   0x1fff19fc   0x0000000c   Ven    RO         2247    Veneer$$Code        anon$$obj.o
    0x1fff1a08   0x1fff1a08   0x0000000c   Ven    RO         2248    Veneer$$Code        anon$$obj.o
    0x1fff1a14   0x1fff1a14   0x0000000c   Ven    RO         2249    Veneer$$Code        anon$$obj.o
    0x1fff1a20   0x1fff1a20   0x0000000c   Ven    RO         2250    Veneer$$Code        anon$$obj.o
    0x1fff1a2c   0x1fff1a2c   0x0000000c   Ven    RO         2251    Veneer$$Code        anon$$obj.o
    0x1fff1a38   0x1fff1a38   0x0000000c   Ven    RO         2252    Veneer$$Code        anon$$obj.o
    0x1fff1a44   0x1fff1a44   0x0000000c   Ven    RO         2253    Veneer$$Code        anon$$obj.o
    0x1fff1a50   0x1fff1a50   0x0000000c   Ven    RO         2254    Veneer$$Code        anon$$obj.o
    0x1fff1a5c   0x1fff1a5c   0x0000000c   Ven    RO         2255    Veneer$$Code        anon$$obj.o
    0x1fff1a68   0x1fff1a68   0x0000000c   Ven    RO         2256    Veneer$$Code        anon$$obj.o
    0x1fff1a74   0x1fff1a74   0x0000000c   Ven    RO         2257    Veneer$$Code        anon$$obj.o
    0x1fff1a80   0x1fff1a80   0x0000000c   Ven    RO         2258    Veneer$$Code        anon$$obj.o
    0x1fff1a8c   0x1fff1a8c   0x0000000c   Ven    RO         2259    Veneer$$Code        anon$$obj.o
    0x1fff1a98   0x1fff1a98   0x0000000c   Ven    RO         2260    Veneer$$Code        anon$$obj.o
    0x1fff1aa4   0x1fff1aa4   0x0000000c   Ven    RO         2261    Veneer$$Code        anon$$obj.o
    0x1fff1ab0   0x1fff1ab0   0x0000000c   Ven    RO         2262    Veneer$$Code        anon$$obj.o
    0x1fff1abc   0x1fff1abc   0x0000000c   Ven    RO         2263    Veneer$$Code        anon$$obj.o
    0x1fff1ac8   0x1fff1ac8   0x0000000c   Ven    RO         2264    Veneer$$Code        anon$$obj.o
    0x1fff1ad4   0x1fff1ad4   0x0000000c   Ven    RO         2265    Veneer$$Code        anon$$obj.o
    0x1fff1ae0   0x1fff1ae0   0x0000000c   Ven    RO         2266    Veneer$$Code        anon$$obj.o
    0x1fff1aec   0x1fff1aec   0x0000000c   Ven    RO         2267    Veneer$$Code        anon$$obj.o
    0x1fff1af8   0x1fff1af8   0x0000000c   Ven    RO         2268    Veneer$$Code        anon$$obj.o
    0x1fff1b04   0x1fff1b04   0x0000000c   Ven    RO         2269    Veneer$$Code        anon$$obj.o
    0x1fff1b10   0x1fff1b10   0x0000000c   Ven    RO         2270    Veneer$$Code        anon$$obj.o
    0x1fff1b1c   0x1fff1b1c   0x0000000c   Ven    RO         2271    Veneer$$Code        anon$$obj.o
    0x1fff1b28   0x1fff1b28   0x0000000c   Ven    RO         2272    Veneer$$Code        anon$$obj.o
    0x1fff1b34   0x1fff1b34   0x0000000c   Ven    RO         2273    Veneer$$Code        anon$$obj.o
    0x1fff1b40   0x1fff1b40   0x0000000c   Ven    RO         2274    Veneer$$Code        anon$$obj.o
    0x1fff1b4c   0x1fff1b4c   0x0000000c   Ven    RO         2275    Veneer$$Code        anon$$obj.o
    0x1fff1b58   0x1fff1b58   0x0000000c   Ven    RO         2276    Veneer$$Code        anon$$obj.o
    0x1fff1b64   0x1fff1b64   0x0000000c   Ven    RO         2277    Veneer$$Code        anon$$obj.o
    0x1fff1b70   0x1fff1b70   0x0000000c   Ven    RO         2278    Veneer$$Code        anon$$obj.o
    0x1fff1b7c   0x1fff1b7c   0x0000000c   Ven    RO         2279    Veneer$$Code        anon$$obj.o
    0x1fff1b88   0x1fff1b88   0x0000000c   Ven    RO         2280    Veneer$$Code        anon$$obj.o
    0x1fff1b94   0x1fff1b94   0x0000000c   Ven    RO         2281    Veneer$$Code        anon$$obj.o
    0x1fff1ba0   0x1fff1ba0   0x0000000c   Ven    RO         2282    Veneer$$Code        anon$$obj.o
    0x1fff1bac   0x1fff1bac   0x0000000c   Ven    RO         2283    Veneer$$Code        anon$$obj.o
    0x1fff1bb8   0x1fff1bb8   0x0000000c   Ven    RO         2284    Veneer$$Code        anon$$obj.o
    0x1fff1bc4   0x1fff1bc4   0x0000000c   Ven    RO         2285    Veneer$$Code        anon$$obj.o
    0x1fff1bd0   0x1fff1bd0   0x0000000c   Ven    RO         2286    Veneer$$Code        anon$$obj.o
    0x1fff1bdc   0x1fff1bdc   0x0000000c   Ven    RO         2287    Veneer$$Code        anon$$obj.o
    0x1fff1be8   0x1fff1be8   0x0000000c   Ven    RO         2288    Veneer$$Code        anon$$obj.o
    0x1fff1bf4   0x1fff1bf4   0x0000000c   Ven    RO         2289    Veneer$$Code        anon$$obj.o
    0x1fff1c00   0x1fff1c00   0x0000000c   Ven    RO         2290    Veneer$$Code        anon$$obj.o
    0x1fff1c0c   0x1fff1c0c   0x0000000c   Ven    RO         2291    Veneer$$Code        anon$$obj.o
    0x1fff1c18   0x1fff1c18   0x0000000c   Ven    RO         2292    Veneer$$Code        anon$$obj.o
    0x1fff1c24   0x1fff1c24   0x0000000c   Ven    RO         2293    Veneer$$Code        anon$$obj.o
    0x1fff1c30   0x1fff1c30   0x0000000c   Ven    RO         2294    Veneer$$Code        anon$$obj.o
    0x1fff1c3c   0x1fff1c3c   0x0000000c   Ven    RO         2295    Veneer$$Code        anon$$obj.o
    0x1fff1c48   0x1fff1c48   0x0000000c   Ven    RO         2296    Veneer$$Code        anon$$obj.o
    0x1fff1c54   0x1fff1c54   0x0000000c   Ven    RO         2297    Veneer$$Code        anon$$obj.o
    0x1fff1c60   0x1fff1c60   0x0000000c   Ven    RO         2298    Veneer$$Code        anon$$obj.o
    0x1fff1c6c   0x1fff1c6c   0x0000000c   Ven    RO         2299    Veneer$$Code        anon$$obj.o
    0x1fff1c78   0x1fff1c78   0x0000000c   Ven    RO         2300    Veneer$$Code        anon$$obj.o
    0x1fff1c84   0x1fff1c84   0x0000000c   Ven    RO         2301    Veneer$$Code        anon$$obj.o
    0x1fff1c90   0x1fff1c90   0x0000000c   Ven    RO         2302    Veneer$$Code        anon$$obj.o
    0x1fff1c9c   0x1fff1c9c   0x0000000c   Ven    RO         2303    Veneer$$Code        anon$$obj.o
    0x1fff1ca8   0x1fff1ca8   0x0000000c   Ven    RO         2304    Veneer$$Code        anon$$obj.o
    0x1fff1cb4   0x1fff1cb4   0x0000000c   Ven    RO         2305    Veneer$$Code        anon$$obj.o
    0x1fff1cc0   0x1fff1cc0   0x0000000c   Ven    RO         2306    Veneer$$Code        anon$$obj.o
    0x1fff1ccc   0x1fff1ccc   0x0000000c   Ven    RO         2307    Veneer$$Code        anon$$obj.o
    0x1fff1cd8   0x1fff1cd8   0x0000000c   Ven    RO         2308    Veneer$$Code        anon$$obj.o
    0x1fff1ce4   0x1fff1ce4   0x0000000c   Ven    RO         2309    Veneer$$Code        anon$$obj.o
    0x1fff1cf0   0x1fff1cf0   0x0000000c   Ven    RO         2310    Veneer$$Code        anon$$obj.o
    0x1fff1cfc   0x1fff1cfc   0x0000000c   Ven    RO         2311    Veneer$$Code        anon$$obj.o
    0x1fff1d08   0x1fff1d08   0x0000000c   Ven    RO         2312    Veneer$$Code        anon$$obj.o
    0x1fff1d14   0x1fff1d14   0x0000000c   Ven    RO         2313    Veneer$$Code        anon$$obj.o
    0x1fff1d20   0x1fff1d20   0x0000000c   Ven    RO         2314    Veneer$$Code        anon$$obj.o
    0x1fff1d2c   0x1fff1d2c   0x0000000c   Ven    RO         2315    Veneer$$Code        anon$$obj.o
    0x1fff1d38   0x1fff1d38   0x0000000c   Ven    RO         2316    Veneer$$Code        anon$$obj.o
    0x1fff1d44   0x1fff1d44   0x0000000c   Ven    RO         2317    Veneer$$Code        anon$$obj.o
    0x1fff1d50   0x1fff1d50   0x0000000c   Ven    RO         2318    Veneer$$Code        anon$$obj.o
    0x1fff1d5c   0x1fff1d5c   0x0000000c   Ven    RO         2319    Veneer$$Code        anon$$obj.o
    0x1fff1d68   0x1fff1d68   0x0000000c   Ven    RO         2320    Veneer$$Code        anon$$obj.o
    0x1fff1d74   0x1fff1d74   0x0000000c   Ven    RO         2321    Veneer$$Code        anon$$obj.o
    0x1fff1d80   0x1fff1d80   0x0000000c   Ven    RO         2322    Veneer$$Code        anon$$obj.o
    0x1fff1d8c   0x1fff1d8c   0x0000000c   Ven    RO         2323    Veneer$$Code        anon$$obj.o
    0x1fff1d98   0x1fff1d98   0x0000000c   Ven    RO         2324    Veneer$$Code        anon$$obj.o
    0x1fff1da4   0x1fff1da4   0x0000000c   Ven    RO         2325    Veneer$$Code        anon$$obj.o
    0x1fff1db0   0x1fff1db0   0x0000000c   Ven    RO         2326    Veneer$$Code        anon$$obj.o
    0x1fff1dbc   0x1fff1dbc   0x0000000c   Ven    RO         2327    Veneer$$Code        anon$$obj.o
    0x1fff1dc8   0x1fff1dc8   0x0000000c   Ven    RO         2328    Veneer$$Code        anon$$obj.o
    0x1fff1dd4   0x1fff1dd4   0x0000000c   Ven    RO         2329    Veneer$$Code        anon$$obj.o
    0x1fff1de0   0x1fff1de0   0x0000000c   Ven    RO         2330    Veneer$$Code        anon$$obj.o
    0x1fff1dec   0x1fff1dec   0x0000000c   Ven    RO         2331    Veneer$$Code        anon$$obj.o
    0x1fff1df8   0x1fff1df8   0x0000000c   Ven    RO         2332    Veneer$$Code        anon$$obj.o
    0x1fff1e04   0x1fff1e04   0x0000000c   Ven    RO         2333    Veneer$$Code        anon$$obj.o
    0x1fff1e10   0x1fff1e10   0x0000000c   Ven    RO         2334    Veneer$$Code        anon$$obj.o
    0x1fff1e1c   0x1fff1e1c   0x0000000c   Ven    RO         2335    Veneer$$Code        anon$$obj.o
    0x1fff1e28   0x1fff1e28   0x0000000c   Ven    RO         2336    Veneer$$Code        anon$$obj.o
    0x1fff1e34   0x1fff1e34   0x0000000c   Ven    RO         2337    Veneer$$Code        anon$$obj.o
    0x1fff1e40   0x1fff1e40   0x0000000c   Ven    RO         2338    Veneer$$Code        anon$$obj.o
    0x1fff1e4c   0x1fff1e4c   0x0000000c   Ven    RO         2339    Veneer$$Code        anon$$obj.o
    0x1fff1e58   0x1fff1e58   0x0000000c   Ven    RO         2340    Veneer$$Code        anon$$obj.o
    0x1fff1e64   0x1fff1e64   0x0000000c   Ven    RO         2341    Veneer$$Code        anon$$obj.o
    0x1fff1e70   0x1fff1e70   0x0000000c   Ven    RO         2342    Veneer$$Code        anon$$obj.o
    0x1fff1e7c   0x1fff1e7c   0x0000000c   Ven    RO         2343    Veneer$$Code        anon$$obj.o
    0x1fff1e88   0x1fff1e88   0x0000000c   Ven    RO         2344    Veneer$$Code        anon$$obj.o
    0x1fff1e94   0x1fff1e94   0x0000000c   Ven    RO         2345    Veneer$$Code        anon$$obj.o
    0x1fff1ea0   0x1fff1ea0   0x0000000c   Ven    RO         2346    Veneer$$Code        anon$$obj.o
    0x1fff1eac   0x1fff1eac   0x0000000c   Ven    RO         2347    Veneer$$Code        anon$$obj.o
    0x1fff1eb8   0x1fff1eb8   0x0000000c   Ven    RO         2348    Veneer$$Code        anon$$obj.o
    0x1fff1ec4   0x1fff1ec4   0x0000000c   Ven    RO         2349    Veneer$$Code        anon$$obj.o
    0x1fff1ed0   0x1fff1ed0   0x0000000c   Ven    RO         2350    Veneer$$Code        anon$$obj.o
    0x1fff1edc   0x1fff1edc   0x0000000c   Ven    RO         2351    Veneer$$Code        anon$$obj.o
    0x1fff1ee8   0x1fff1ee8   0x0000001c   Code   RO         1659    _func_xip_code_.LL_Disconnect1  rf.lib(patch.o)
    0x1fff1f04   0x1fff1f04   0x0000011c   Code   RO         1662    _func_xip_code_.LL_InitConnectContext  rf.lib(patch.o)
    0x1fff2020   0x1fff2020   0x00000030   Code   RO         1668    _func_xip_code_.LL_SetDataLengh1  rf.lib(patch.o)
    0x1fff2050   0x1fff2050   0x000000a4   Code   RO         1674    _func_xip_code_.LL_TxData1  rf.lib(patch.o)
    0x1fff20f4   0x1fff20f4   0x000000e4   Code   RO          871    _section_sram_code_  uart.o
    0x1fff21d8   0x1fff21d8   0x00000034   Code   RO         1023    _section_sram_code_  pwrmgr.o
    0x1fff220c   0x1fff220c   0x00000050   Code   RO          271    i.FillBuffer        voice_circ_buff.o
    0x1fff225c   0x1fff225c   0x00000018   Code   RO          274    i.GetBufferSize     voice_circ_buff.o
    0x1fff2274   0x1fff2274   0x00000024   Code   RO          277    i.InitCircularBuffer  voice_circ_buff.o
    0x1fff2298   0x1fff2298   0x00000028   Code   RO          395    i.InitQueue         voice_queue.o
    0x1fff22c0   0x1fff22c0   0x00000014   Code   RO          280    i.IsBufferSizeFilled  voice_circ_buff.o
    0x1fff22d4   0x1fff22d4   0x00000014   Code   RO          281    i.IsBufferVacant    voice_circ_buff.o
    0x1fff22e8   0x1fff22e8   0x0000001a   Code   RO         1698    i.LL_ENC_AES128_Encrypt1  rf.lib(patch.o)
    0x1fff2302   0x1fff2302   0x00000002   PAD
    0x1fff2304   0x1fff2304   0x00000178   Code   RO         1699    i.LL_ENC_Decrypt1   rf.lib(patch.o)
    0x1fff247c   0x1fff247c   0x00000160   Code   RO         1700    i.LL_ENC_Encrypt1   rf.lib(patch.o)
    0x1fff25dc   0x1fff25dc   0x000001bc   Code   RO         1701    i.LL_IRQHandler1    rf.lib(patch.o)
    0x1fff2798   0x1fff2798   0x00000054   Code   RO         1705    i.LL_ProcessEvent1  rf.lib(patch.o)
    0x1fff27ec   0x1fff27ec   0x00000018   Code   RO         1706    i.LL_Reset1         rf.lib(patch.o)
    0x1fff2804   0x1fff2804   0x00000048   Code   RO         1708    i.LL_set_default_conn_params1  rf.lib(patch.o)
    0x1fff284c   0x1fff284c   0x00000014   Code   RO         1711    i.NVIC_EnableIRQ    rf.lib(patch.o)
    0x1fff2860   0x1fff2860   0x0000003a   Code   RO          282    i.ReadBuffer        voice_circ_buff.o
    0x1fff289a   0x1fff289a   0x00000002   PAD
    0x1fff289c   0x1fff289c   0x00000010   Code   RO         1615    i.SystemInit        system_armcm0.o
    0x1fff28ac   0x1fff28ac   0x0000001e   Code   RO          283    i.UpdateReadPtr     voice_circ_buff.o
    0x1fff28ca   0x1fff28ca   0x0000001e   Code   RO          284    i.UpdateWritePtr    voice_circ_buff.o
    0x1fff28e8   0x1fff28e8   0x00000044   Code   RO            3    i.__NVIC_SetPriority  main.o
    0x1fff292c   0x1fff292c   0x0000000e   Code   RO         2234    i.__scatterload_copy  mc_p.l(handlers.o)
    0x1fff293a   0x1fff293a   0x00000002   Code   RO         2235    i.__scatterload_null  mc_p.l(handlers.o)
    0x1fff293c   0x1fff293c   0x0000000e   Code   RO         2236    i.__scatterload_zeroinit  mc_p.l(handlers.o)
    0x1fff294a   0x1fff294a   0x00000002   PAD
    0x1fff294c   0x1fff294c   0x00000010   Code   RO         1713    i.__wdt_init        rf.lib(patch.o)
    0x1fff295c   0x1fff295c   0x0000010c   Code   RO         1714    i._clk_apply_setting1  rf.lib(patch.o)
    0x1fff2a68   0x1fff2a68   0x00000020   Code   RO         2062    i._efuse_chip_version_check  rf.lib(phy_sec_ext.o)
    0x1fff2a88   0x1fff2a88   0x0000023c   Code   RO         1578    i._hard_fault       jump_table.o
    0x1fff2cc4   0x1fff2cc4   0x00000020   Code   RO         2063    i._rom_efuse_version_init  rf.lib(phy_sec_ext.o)
    0x1fff2ce4   0x1fff2ce4   0x0000001c   Code   RO         2064    i._rom_sec_boot_init  rf.lib(phy_sec_ext.o)
    0x1fff2d00   0x1fff2d00   0x0000000e   Code   RO          811    i._uart_putc        my_printf.o
    0x1fff2d0e   0x1fff2d0e   0x00000002   PAD
    0x1fff2d10   0x1fff2d10   0x00000048   Code   RO          552    i.aon_register_init  clock.o
    0x1fff2d58   0x1fff2d58   0x00000014   Code   RO          205    i.app_main          adc_main.o
    0x1fff2d6c   0x1fff2d6c   0x00000154   Code   RO         1715    i.check_16MXtal_by_rcTracking  rf.lib(patch.o)
    0x1fff2ec0   0x1fff2ec0   0x00000110   Code   RO         1716    i.check_96MXtal_by_rcTracking  rf.lib(patch.o)
    0x1fff2fd0   0x1fff2fd0   0x00000080   Code   RO         1718    i.clk_init          rf.lib(patch.o)
    0x1fff3050   0x1fff3050   0x000000b4   Code   RO         1719    i.config_RTC1       rf.lib(patch.o)
    0x1fff3104   0x1fff3104   0x0000008c   Code   RO         1720    i.cusum_advance_slave_rx_window  rf.lib(patch.o)
    0x1fff3190   0x1fff3190   0x0000001c   Code   RO          812    i.dbg_printf        my_printf.o
    0x1fff31ac   0x1fff31ac   0x00000014   Code   RO          813    i.dbg_printf_init   my_printf.o
    0x1fff31c0   0x1fff31c0   0x00000018   Code   RO         2065    i.efuse_init        rf.lib(phy_sec_ext.o)
    0x1fff31d8   0x1fff31d8   0x000000b8   Code   RO         1723    i.enlarge_rx_timeout_1st  rf.lib(patch.o)
    0x1fff3290   0x1fff3290   0x00000044   Code   RO         1724    i.enterSleepProcess1  rf.lib(patch.o)
    0x1fff32d4   0x1fff32d4   0x0000008c   Code   RO         2066    i.finidv            rf.lib(phy_sec_ext.o)
    0x1fff3360   0x1fff3360   0x00000094   Code   RO         1727    i.global_config_hclk_related  rf.lib(patch.o)
    0x1fff33f4   0x1fff33f4   0x00000044   Code   RO          872    i.hal_UART0_IRQHandler  uart.o
    0x1fff3438   0x1fff3438   0x00000044   Code   RO          873    i.hal_UART1_IRQHandler  uart.o
    0x1fff347c   0x1fff347c   0x00000048   Code   RO         1328    i.hal_cache_tag_flush  flash.o
    0x1fff34c4   0x1fff34c4   0x00000034   Code   RO          553    i.hal_clk_gate_disable  clock.o
    0x1fff34f8   0x1fff34f8   0x00000034   Code   RO          554    i.hal_clk_gate_enable  clock.o
    0x1fff352c   0x1fff352c   0x0000007a   Code   RO          557    i.hal_clk_reset     clock.o
    0x1fff35a6   0x1fff35a6   0x00000002   PAD
    0x1fff35a8   0x1fff35a8   0x0000006c   Code   RO            4    i.hal_low_power_io_init  main.o
    0x1fff3614   0x1fff3614   0x00000014   Code   RO         1028    i.hal_pwrmgr_LowCurrentLdo_enable  pwrmgr.o
    0x1fff3628   0x1fff3628   0x00000024   Code   RO         1029    i.hal_pwrmgr_RAM_retention  pwrmgr.o
    0x1fff364c   0x1fff364c   0x00000014   Code   RO         1030    i.hal_pwrmgr_RAM_retention_clr  pwrmgr.o
    0x1fff3660   0x1fff3660   0x00000024   Code   RO         1031    i.hal_pwrmgr_RAM_retention_set  pwrmgr.o
    0x1fff3684   0x1fff3684   0x00000030   Code   RO         1033    i.hal_pwrmgr_init   pwrmgr.o
    0x1fff36b4   0x1fff36b4   0x00000058   Code   RO         1035    i.hal_pwrmgr_lock   pwrmgr.o
    0x1fff370c   0x1fff370c   0x00000054   Code   RO         1037    i.hal_pwrmgr_register  pwrmgr.o
    0x1fff3760   0x1fff3760   0x00000004   Code   RO         1038    i.hal_pwrmgr_sleep_process  pwrmgr.o
    0x1fff3764   0x1fff3764   0x00000068   Code   RO         1039    i.hal_pwrmgr_unlock  pwrmgr.o
    0x1fff37cc   0x1fff37cc   0x0000005c   Code   RO         1040    i.hal_pwrmgr_unregister  pwrmgr.o
    0x1fff3828   0x1fff3828   0x00000004   Code   RO         1041    i.hal_pwrmgr_wakeup_process  pwrmgr.o
    0x1fff382c   0x1fff382c   0x00000028   Code   RO          559    i.hal_rc32k_clk_tracking_init  clock.o
    0x1fff3854   0x1fff3854   0x00000088   Code   RO            5    i.hal_rfphy_init    main.o
    0x1fff38dc   0x1fff38dc   0x00000008   Code   RO         1728    i.hal_rom_boot_init  rf.lib(patch.o)
    0x1fff38e4   0x1fff38e4   0x00000084   Code   RO          560    i.hal_rtc_clock_config  clock.o
    0x1fff3968   0x1fff3968   0x00000020   Code   RO         1336    i.hal_spif_cache_init  flash.o
    0x1fff3988   0x1fff3988   0x00000010   Code   RO         1730    i.hal_system_clock_change_process  rf.lib(patch.o)
    0x1fff3998   0x1fff3998   0x00000064   Code   RO          877    i.hal_uart_init     uart.o
    0x1fff39fc   0x1fff39fc   0x00000020   Code   RO          878    i.hal_uart_send_buff  uart.o
    0x1fff3a1c   0x1fff3a1c   0x000000a8   Code   RO         1337    i.hw_spif_cache_config  flash.o
    0x1fff3ac4   0x1fff3ac4   0x00000010   Code   RO         1733    i.isTimer5Running   rf.lib(patch.o)
    0x1fff3ad4   0x1fff3ad4   0x00000002   Code   RO         1734    i.l2capPocessFragmentTxData  rf.lib(patch.o)
    0x1fff3ad6   0x1fff3ad6   0x00000002   PAD
    0x1fff3ad8   0x1fff3ad8   0x000000b8   Code   RO         2087    i.lib_efuse_load    rf.lib(lib_efuse3.o)
    0x1fff3b90   0x1fff3b90   0x00000054   Code   RO         1743    i.llProcessTxData1  rf.lib(patch.o)
    0x1fff3be4   0x1fff3be4   0x000000c0   Code   RO         1744    i.llReleaseConnId1  rf.lib(patch.o)
    0x1fff3ca4   0x1fff3ca4   0x00000038   Code   RO         1751    i.llSlaveEvt_TaskEndOk1  rf.lib(patch.o)
    0x1fff3cdc   0x1fff3cdc   0x000000a8   Code   RO         1752    i.llWriteTxData1    rf.lib(patch.o)
    0x1fff3d84   0x1fff3d84   0x0000005c   Code   RO         1757    i.ll_flow_ctrl_restore  rf.lib(patch.o)
    0x1fff3de0   0x1fff3de0   0x0000027c   Code   RO         1758    i.ll_generateTxBuffer1  rf.lib(patch.o)
    0x1fff405c   0x1fff405c   0x000002dc   Code   RO         1759    i.ll_hw_go1         rf.lib(patch.o)
    0x1fff4338   0x1fff4338   0x000000dc   Code   RO         1761    i.ll_hw_read_tfifo_rtlp1  rf.lib(patch.o)
    0x1fff4414   0x1fff4414   0x00000094   Code   RO         1763    i.ll_osal_mem_alloc  rf.lib(patch.o)
    0x1fff44a8   0x1fff44a8   0x00000050   Code   RO         1764    i.ll_osal_mem_free  rf.lib(patch.o)
    0x1fff44f8   0x1fff44f8   0x00000018   Code   RO         1776    i.ll_processBasicIRQ_SRX  rf.lib(patch.o)
    0x1fff4510   0x1fff4510   0x00000018   Code   RO         1778    i.ll_processBasicIRQ_ScanTRX  rf.lib(patch.o)
    0x1fff4528   0x1fff4528   0x00000018   Code   RO         1780    i.ll_processBasicIRQ_secScanTRX  rf.lib(patch.o)
    0x1fff4540   0x1fff4540   0x00000018   Code   RO         1782    i.ll_processBasicIRQ_secondaryAdvSTX  rf.lib(patch.o)
    0x1fff4558   0x1fff4558   0x00000018   Code   RO         1784    i.ll_processBasicIRQ_secondaryAdvTRX  rf.lib(patch.o)
    0x1fff4570   0x1fff4570   0x00000018   Code   RO         1787    i.ll_processBasicIRQ_secondaryInitSRX  rf.lib(patch.o)
    0x1fff4588   0x1fff4588   0x00000018   Code   RO         1789    i.ll_processBasicIRQ_secondaryScanSRX  rf.lib(patch.o)
    0x1fff45a0   0x1fff45a0   0x0000003c   Code   RO         1792    i.ll_read_rxfifo1   rf.lib(patch.o)
    0x1fff45dc   0x1fff45dc   0x00000048   Code   RO         1797    i.llbuf_alloc_time_statics  rf.lib(patch.o)
    0x1fff4624   0x1fff4624   0x00000268   Code   RO          814    i.log_vsprintf      my_printf.o
    0x1fff488c   0x1fff488c   0x00000124   Code   RO            6    i.main              main.o
    0x1fff49b0   0x1fff49b0   0x00000168   Code   RO          816    i.number            my_printf.o
    0x1fff4b18   0x1fff4b18   0x0000002c   Code   RO          232    i.osalInitTasks     osal_adc.o
    0x1fff4b44   0x1fff4b44   0x00000018   Code   RO         1806    i.osal_idle_task0   rf.lib(patch.o)
    0x1fff4b5c   0x1fff4b5c   0x00000038   Code   RO         1810    i.osal_search_active_task  rf.lib(patch.o)
    0x1fff4b94   0x1fff4b94   0x00000098   Code   RO         1811    i.patch_linkBuf_init  rf.lib(patch.o)
    0x1fff4c2c   0x1fff4c2c   0x00000008   Code   RO          477    i.pin_voice_stop_event  voice_demo.o
    0x1fff4c34   0x1fff4c34   0x00000080   Code   RO         1997    i.rc32k_calibration  rf.lib(rf_phy_driver.o)
    0x1fff4cb4   0x1fff4cb4   0x00000058   Code   RO         1812    i.rc32k_cap_cal     rf.lib(patch.o)
    0x1fff4d0c   0x1fff4d0c   0x0000000c   Code   RO         1814    i.read_TIM5_remainder_timer  rf.lib(patch.o)
    0x1fff4d18   0x1fff4d18   0x0000000c   Code   RO         1998    i.rf_calibrate1     rf.lib(rf_phy_driver.o)
    0x1fff4d24   0x1fff4d24   0x0000011c   Code   RO         1999    i.rf_phy_ana_cfg    rf.lib(rf_phy_driver.o)
    0x1fff4e40   0x1fff4e40   0x000001ac   Code   RO         2000    i.rf_phy_bb_cfg     rf.lib(rf_phy_driver.o)
    0x1fff4fec   0x1fff4fec   0x000000a8   Code   RO         2001    i.rf_phy_change_cfg0  rf.lib(rf_phy_driver.o)
    0x1fff5094   0x1fff5094   0x0000003c   Code   RO         2018    i.rf_phy_ini        rf.lib(rf_phy_driver.o)
    0x1fff50d0   0x1fff50d0   0x00000074   Code   RO         2019    i.rf_phy_set_txPower  rf.lib(rf_phy_driver.o)
    0x1fff5144   0x1fff5144   0x0000004c   Code   RO         2023    i.rf_tpCal_gen_cap_arrary  rf.lib(rf_phy_driver.o)
    0x1fff5190   0x1fff5190   0x0000011c   Code   RO         2024    i.rf_tp_cal         rf.lib(rf_phy_driver.o)
    0x1fff52ac   0x1fff52ac   0x00000020   Code   RO          817    i.skip_atoi         my_printf.o
    0x1fff52cc   0x1fff52cc   0x00000054   Code   RO          478    i.stop_voice_task   voice_demo.o
    0x1fff5320   0x1fff5320   0x0000006c   Code   RO          882    i.txmit_buf_polling  uart.o
    0x1fff538c   0x1fff538c   0x000000bc   Code   RO          883    i.txmit_buf_use_tx_buf  uart.o
    0x1fff5448   0x1fff5448   0x00000080   Code   RO          884    i.uart_hw_deinit    uart.o
    0x1fff54c8   0x1fff54c8   0x000001a8   Code   RO          885    i.uart_hw_init      uart.o
    0x1fff5670   0x1fff5670   0x0000000a   Code   RO          886    i.uart_wakeup_process_0  uart.o
    0x1fff567a   0x1fff567a   0x0000000a   Code   RO          887    i.uart_wakeup_process_1  uart.o
    0x1fff5684   0x1fff5684   0x00000070   Code   RO          479    i.voiceCaptureInit  voice_demo.o
    0x1fff56f4   0x1fff56f4   0x00000044   Code   RO          480    i.voiceCaptureStart  voice_demo.o
    0x1fff5738   0x1fff5738   0x00000038   Code   RO          481    i.voice_Init        voice_demo.o
    0x1fff5770   0x1fff5770   0x00000058   Code   RO          482    i.voice_ProcessEvent  voice_demo.o
    0x1fff57c8   0x1fff57c8   0x00000028   Code   RO          483    i.voice_data_encode_inqueue  voice_demo.o
    0x1fff57f0   0x1fff57f0   0x00000050   Code   RO          484    i.voice_evt_handler_adpcm  voice_demo.o
    0x1fff5840   0x1fff5840   0x00000030   Code   RO          485    i.voice_requeset_data  voice_demo.o
    0x1fff5870   0x1fff5870   0x00000214   Code   RO         1816    i.wakeupProcess1    rf.lib(patch.o)
    0x1fff5a84   0x1fff5a84   0x0000015c   Code   RO         1817    i.wakeup_init1      rf.lib(patch.o)
    0x1fff5be0   0x1fff5be0   0x00000032   Data   RO            8    .constdata          main.o
    0x1fff5c12   0x1fff5c12   0x00000002   PAD
    0x1fff5c14   0x1fff5c14   0x00000010   Data   RO          818    .constdata          my_printf.o
    0x1fff5c24   0x1fff5c24   0x0000000c   Data   RO          889    .constdata          uart.o
    0x1fff5c30   0x1fff5c30   0x00000054   Data   RO            9    .conststring        main.o
    0x1fff5c84   0x1fff5c84   0x0000004d   Data   RO          819    .conststring        my_printf.o
    0x1fff5cd1   0x1fff5cd1   0x00000003   PAD
    0x1fff5cd4   0x1fff5cd4   0x00000030   Data   RO         2232    Region$$Table       anon$$obj.o
    0x1fff5d04   0x1fff5d04   0x00000008   Data   RO          234    _section_sram_code_  osal_adc.o
    0x1fff5d0c   0x1fff5d0c   0x00000001   Data   RO          235    _section_sram_code_  osal_adc.o
    0x1fff5d0d   0x1fff5d0d   0x00000003   PAD
    0x1fff5d10   0x1fff5d10   0x00000001   Data   RW           10    .data               main.o
    0x1fff5d11   0x1fff5d11   0x00000003   PAD
    0x1fff5d14   0x1fff5d14   0x00000004   Data   RW          233    .data               osal_adc.o
    0x1fff5d18   0x1fff5d18   0x00000001   Data   RW          400    .data               voice_queue.o
    0x1fff5d19   0x1fff5d19   0x00000003   PAD
    0x1fff5d1c   0x1fff5d1c   0x00000008   Data   RW          489    .data               voice_demo.o
    0x1fff5d24   0x1fff5d24   0x00000008   Data   RW          820    .data               my_printf.o
    0x1fff5d2c   0x1fff5d2c   0x00000002   Data   RW          890    .data               uart.o
    0x1fff5d2e   0x1fff5d2e   0x00000002   PAD
    0x1fff5d30   0x1fff5d30   0x0000000d   Data   RW         1043    .data               pwrmgr.o
    0x1fff5d3d   0x1fff5d3d   0x00000003   PAD
    0x1fff5d40   0x1fff5d40   0x00000019   Data   RW         1183    .data               adc.o
    0x1fff5d59   0x1fff5d59   0x00000003   PAD
    0x1fff5d5c   0x1fff5d5c   0x0000000f   Data   RW         1340    .data               flash.o
    0x1fff5d6b   0x1fff5d6b   0x00000001   PAD
    0x1fff5d6c   0x1fff5d6c   0x00000004   Data   RW         1579    .data               jump_table.o
    0x1fff5d70   0x1fff5d70   0x00000004   Data   RW         1616    .data               system_armcm0.o
    0x1fff5d74   0x1fff5d74   0x00000069   Data   RW         1822    .data               rf.lib(patch.o)
    0x1fff5ddd   0x1fff5ddd   0x00000001   Data   RW         2072    .data               rf.lib(phy_sec_ext.o)
    0x1fff5dde   0x1fff5dde   0x00000002   PAD
    0x1fff5de0   0x1fff5de0   0x00000008   Data   RW         2098    .data               rf.lib(lib_efuse3.o)
    0x1fff5de8        -       0x00002020   Zero   RW            7    .bss                main.o
    0x1fff7e08        -       0x0000020c   Zero   RW          399    .bss                voice_queue.o
    0x1fff8014        -       0x00000480   Zero   RW          488    .bss                voice_demo.o
    0x1fff8494        -       0x00000130   Zero   RW          674    .bss                gpio.o
    0x1fff85c4        -       0x00000040   Zero   RW          888    .bss                uart.o
    0x1fff8604        -       0x00000084   Zero   RW         1042    .bss                pwrmgr.o
    0x1fff8688        -       0x00000028   Zero   RW         1180    .bss                adc.o
    0x1fff86b0        -       0x00000210   Zero   RW         1465    .bss                voice.o
    0x1fff88c0        -       0x0000038c   Zero   RW         1818    .bss                rf.lib(patch.o)
    0x1fff8c4c        -       0x00000010   Zero   RW         2068    .bss                rf.lib(phy_sec_ext.o)
    0x1fff8c5c   0x1fff5de8   0x00000004   PAD
    0x1fff8c60        -       0x00000400   Zero   RW         1605    STACK               startup_armcm0.o



  Load Region LR_IROM2 (Base: 0x1fff0000, Size: 0x00000800, Max: 0x00000800, ABSOLUTE, COMPRESSED[0x0000040c])

    Execution Region JUMP_TABLE (Exec base: 0x1fff0000, Load base: 0x1fff0000, Size: 0x00000400, Max: 0x00000400, ABSOLUTE)

    Exec Addr    Load Addr    Size         Type   Attr      Idx    E Section Name        Object

    0x1fff0000   0x1fff0000   0x00000400   Data   RO         1581    jump_table_mem_area  jump_table.o


    Execution Region GOLBAL_CONFIG (Exec base: 0x1fff0400, Load base: 0x1fff0400, Size: 0x00000400, Max: 0x00000400, ABSOLUTE, COMPRESSED[0x0000000c])

    Exec Addr    Load Addr    Size         Type   Attr      Idx    E Section Name        Object

    0x1fff0400   COMPRESSED   0x00000400   Data   RW         1580    global_config_area  jump_table.o



  Load Region LR_ROM_XIP (Base: 0x11020000, Size: 0x000012a8, Max: 0x00020000, ABSOLUTE)

    Execution Region ER_ROM_XIP (Exec base: 0x11020000, Load base: 0x11020000, Size: 0x000012a8, Max: 0x00020000, ABSOLUTE)

    Exec Addr    Load Addr    Size         Type   Attr      Idx    E Section Name        Object

    0x11020000   0x11020000   0x0000000c   Ven    RO         2352    Veneer$$Code        anon$$obj.o
    0x1102000c   0x1102000c   0x0000000c   Ven    RO         2353    Veneer$$Code        anon$$obj.o
    0x11020018   0x11020018   0x0000000c   Ven    RO         2354    Veneer$$Code        anon$$obj.o
    0x11020024   0x11020024   0x0000000c   Ven    RO         2355    Veneer$$Code        anon$$obj.o
    0x11020030   0x11020030   0x0000000c   Ven    RO         2356    Veneer$$Code        anon$$obj.o
    0x1102003c   0x1102003c   0x0000000c   Ven    RO         2357    Veneer$$Code        anon$$obj.o
    0x11020048   0x11020048   0x0000000c   Ven    RO         2358    Veneer$$Code        anon$$obj.o
    0x11020054   0x11020054   0x0000000c   Ven    RO         2359    Veneer$$Code        anon$$obj.o
    0x11020060   0x11020060   0x0000000c   Ven    RO         2360    Veneer$$Code        anon$$obj.o
    0x1102006c   0x1102006c   0x0000000c   Ven    RO         2361    Veneer$$Code        anon$$obj.o
    0x11020078   0x11020078   0x0000000c   Ven    RO         2362    Veneer$$Code        anon$$obj.o
    0x11020084   0x11020084   0x0000000c   Ven    RO         2363    Veneer$$Code        anon$$obj.o
    0x11020090   0x11020090   0x0000000c   Ven    RO         2364    Veneer$$Code        anon$$obj.o
    0x1102009c   0x1102009c   0x0000000c   Ven    RO         2365    Veneer$$Code        anon$$obj.o
    0x110200a8   0x110200a8   0x0000000c   Ven    RO         2366    Veneer$$Code        anon$$obj.o
    0x110200b4   0x110200b4   0x0000000c   Ven    RO         2367    Veneer$$Code        anon$$obj.o
    0x110200c0   0x110200c0   0x0000000c   Ven    RO         2368    Veneer$$Code        anon$$obj.o
    0x110200cc   0x110200cc   0x00000304   Code   RO         1696    _section_xip_code_  rf.lib(patch.o)
    0x110203d0   0x110203d0   0x00000020   Code   RO         1155    i.__NVIC_DisableIRQ  adc.o
    0x110203f0   0x110203f0   0x00000044   Code   RO         1157    i.__NVIC_SetPriority  adc.o
    0x11020434   0x11020434   0x00000044   Code   RO         1444    i.__NVIC_SetPriority  voice.o
    0x11020478   0x11020478   0x0000014c   Code   RO         1158    i.adc_compare_cb    adc.o
    0x110205c4   0x110205c4   0x0000000c   Code   RO         1161    i.adc_wakeup_hdl    adc.o
    0x110205d0   0x110205d0   0x00000018   Code   RO         1162    i.clear_adcc_cfg    adc.o
    0x110205e8   0x110205e8   0x00000028   Code   RO         1163    i.disable_analog_pin  adc.o
    0x11020610   0x11020610   0x000000c4   Code   RO         1164    i.hal_ADC_IRQHandler  adc.o
    0x110206d4   0x110206d4   0x000000b4   Code   RO         1445    i.hal_ADC_VOICE_IRQHandler  voice.o
    0x11020788   0x11020788   0x00000130   Code   RO         1165    i.hal_ADC_compare_IRQHandler  adc.o
    0x110208b8   0x110208b8   0x00000018   Code   RO          651    i.hal_GPIO_IRQHandler  gpio.o
    0x110208d0   0x110208d0   0x00000020   Code   RO         1172    i.hal_adc_init      adc.o
    0x110208f0   0x110208f0   0x000000ac   Code   RO         1175    i.hal_adc_stop      adc.o
    0x1102099c   0x1102099c   0x00000038   Code   RO          652    i.hal_gpio_cfg_analog_io  gpio.o
    0x110209d4   0x110209d4   0x00000020   Code   RO          656    i.hal_gpio_fmux     gpio.o
    0x110209f4   0x110209f4   0x00000044   Code   RO          657    i.hal_gpio_fmux_set  gpio.o
    0x11020a38   0x11020a38   0x00000058   Code   RO          658    i.hal_gpio_init     gpio.o
    0x11020a90   0x11020a90   0x00000040   Code   RO          659    i.hal_gpio_interrupt_enable  gpio.o
    0x11020ad0   0x11020ad0   0x0000001c   Code   RO          660    i.hal_gpio_pin2pin3_control  gpio.o
    0x11020aec   0x11020aec   0x00000074   Code   RO          661    i.hal_gpio_pin_init  gpio.o
    0x11020b60   0x11020b60   0x00000054   Code   RO          662    i.hal_gpio_pull_set  gpio.o
    0x11020bb4   0x11020bb4   0x0000002c   Code   RO          663    i.hal_gpio_read     gpio.o
    0x11020be0   0x11020be0   0x00000048   Code   RO          667    i.hal_gpioin_disable  gpio.o
    0x11020c28   0x11020c28   0x0000006c   Code   RO          668    i.hal_gpioin_enable  gpio.o
    0x11020c94   0x11020c94   0x00000088   Code   RO          669    i.hal_gpioin_event  gpio.o
    0x11020d1c   0x11020d1c   0x00000040   Code   RO          670    i.hal_gpioin_register  gpio.o
    0x11020d5c   0x11020d5c   0x0000008c   Code   RO         1178    i.hal_poilling_adc_stop  adc.o
    0x11020de8   0x11020de8   0x00000018   Code   RO         1446    i.hal_voice_amic_gain  voice.o
    0x11020e00   0x11020e00   0x00000038   Code   RO         1447    i.hal_voice_amic_mode  voice.o
    0x11020e38   0x11020e38   0x00000010   Code   RO         1448    i.hal_voice_amute_off  voice.o
    0x11020e48   0x11020e48   0x00000010   Code   RO         1449    i.hal_voice_amute_on  voice.o
    0x11020e58   0x11020e58   0x00000118   Code   RO         1451    i.hal_voice_config  voice.o
    0x11020f70   0x11020f70   0x00000012   Code   RO         1452    i.hal_voice_deinit  voice.o
    0x11020f82   0x11020f82   0x00000002   PAD
    0x11020f84   0x11020f84   0x00000020   Code   RO         1453    i.hal_voice_disable  voice.o
    0x11020fa4   0x11020fa4   0x00000010   Code   RO         1454    i.hal_voice_dmic_mode  voice.o
    0x11020fb4   0x11020fb4   0x00000014   Code   RO         1455    i.hal_voice_dmic_open  voice.o
    0x11020fc8   0x11020fc8   0x00000018   Code   RO         1456    i.hal_voice_enable  voice.o
    0x11020fe0   0x11020fe0   0x00000018   Code   RO         1457    i.hal_voice_encode  voice.o
    0x11020ff8   0x11020ff8   0x00000018   Code   RO         1458    i.hal_voice_gain    voice.o
    0x11021010   0x11021010   0x00000024   Code   RO         1459    i.hal_voice_init    voice.o
    0x11021034   0x11021034   0x00000018   Code   RO         1460    i.hal_voice_rate    voice.o
    0x1102104c   0x1102104c   0x00000084   Code   RO         1461    i.hal_voice_start   voice.o
    0x110210d0   0x110210d0   0x00000054   Code   RO         1462    i.hal_voice_stop    voice.o
    0x11021124   0x11021124   0x00000094   Code   RO         1463    i.set_voice_amute_cfg  voice.o
    0x110211b8   0x110211b8   0x0000000c   Code   RO         1464    i.voice_wakeup_hdl  voice.o
    0x110211c4   0x110211c4   0x0000005c   Data   RO          675    .constdata          gpio.o
    0x11021220   0x11021220   0x00000085   Data   RO         1182    .conststring        adc.o


==============================================================================

Image component sizes


      Code (inc. data)   RO Data    RW Data    ZI Data      Debug   Object Name

      1352        216        133         25         40      18906   adc.o
         0          0          0          0          0       2688   adc_demo.o
        20          0          0          0          0       1007   adc_main.o
       470         46          0          0          0       4224   clock.o
       272         42          0         15          0      13685   flash.o
       984        110         92          0        304      19653   gpio.o
       628        380       1024       1028          0       2970   jump_table.o
       604        202        134          1       8224      63190   main.o
      1070         22         93          8          0       7336   my_printf.o
        44          6          9          4          0       1744   osal_adc.o
       588         70          0         13        132       8953   pwrmgr.o
        28          8        192          0       1024        632   startup_armcm0.o
        16          8          0          4          0        691   system_armcm0.o
      1364        132         12          2         64      17851   uart.o
      1234        156          0          0        528      20070   voice.o
       298          0          0          0          0       6616   voice_circ_buff.o
       584        114          0          8       1152       6836   voice_demo.o
        40         10          0          1        524       1770   voice_queue.o

    ----------------------------------------------------------------------
     11128       2030       1748       1124      11992     198822   Object Totals
      1524        508         48          0          0          0   (incl. Generated)
         8          0         11         15          0          0   (incl. Padding)

    ----------------------------------------------------------------------

      Code (inc. data)   RO Data    RW Data    ZI Data      Debug   Library Member Name

        58          0          0          0          0          0   __dczerorl.o
         0          0          0          0          0          0   entry.o
         0          0          0          0          0          0   entry10a.o
         0          0          0          0          0          0   entry11a.o
         8          4          0          0          0          0   entry2.o
         4          0          0          0          0          0   entry5.o
         0          0          0          0          0          0   entry7b.o
         0          0          0          0          0          0   entry8b.o
         8          4          0          0          0          0   entry9a.o
        30          0          0          0          0          0   handlers.o
        36          8          0          0          0         68   init.o
       184         16          0          8          0         72   lib_efuse3.o
      8400        964          0        105        908       3900   patch.o
       256         36          0          1         16        344   phy_sec_ext.o
      1556        304          0          0          0        656   rf_phy_driver.o

    ----------------------------------------------------------------------
     10548       1336          0        116        928       5040   Library Totals
         8          0          0          2          4          0   (incl. Padding)

    ----------------------------------------------------------------------

      Code (inc. data)   RO Data    RW Data    ZI Data      Debug   Library Name

       144         16          0          0          0         68   mc_p.l
     10396       1320          0        114        924       4972   rf.lib

    ----------------------------------------------------------------------
     10548       1336          0        116        928       5040   Library Totals

    ----------------------------------------------------------------------

==============================================================================


      Code (inc. data)   RO Data    RW Data    ZI Data      Debug   

     21676       3366       1748       1240      12920     196422   Grand Totals
     21676       3366       1748        228      12920     196422   ELF Image Totals (compressed)
     21676       3366       1748        228          0          0   ROM Totals

==============================================================================

    Total RO  Size (Code + RO Data)                23424 (  22.88kB)
    Total RW  Size (RW Data + ZI Data)             14160 (  13.83kB)
    Total ROM Size (Code + RO Data + RW Data)      23652 (  23.10kB)

==============================================================================

